(lp1
(iGraph
Graph
p2
(dp3
S'nodeList'
p4
(lp5
(iGraph
Node
p6
(dp7
S'neighbors'
p8
(lp9
(iGraph
Node
p10
(dp11
g8
(lp12
(iGraph
Node
p13
(dp14
g8
(lp15
g10
a(iGraph
Node
p16
(dp17
g8
(lp18
(iGraph
Node
p19
(dp20
g8
(lp21
g16
a(iGraph
Node
p22
(dp23
g8
(lp24
g19
ag16
ag13
ag6
a(iGraph
Node
p25
(dp26
g8
(lp27
(iGraph
Node
p28
(dp29
g8
(lp30
(iGraph
Node
p31
(dp32
g8
(lp33
(iGraph
Node
p34
(dp35
g8
(lp36
g31
ag13
ag28
a(iGraph
Node
p37
(dp38
g8
(lp39
(iGraph
Node
p40
(dp41
g8
(lp42
g37
ag25
ag6
a(iGraph
Node
p43
(dp44
g8
(lp45
g37
ag40
ag25
ag28
ag10
ag31
ag6
asS'center'
p46
NsS'color'
p47
S'black'
p48
sS'r'
I5
sS'visited'
p49
I00
sS'circle'
p50
NsS'ID'
p51
I8
sbag16
ag34
a(iGraph
Node
p52
(dp53
g8
(lp54
g16
ag6
ag37
ag19
ag40
a(iGraph
Node
p55
(dp56
g8
(lp57
g31
ag16
ag25
ag52
ag22
ag28
ag13
asg46
Nsg47
g48
sS'r'
I5
sg49
I00
sg50
Nsg51
I11
sbag34
asg46
Nsg47
g48
sS'r'
I5
sg49
I00
sg50
Nsg51
I6
sbasg46
Nsg47
g48
sS'r'
I5
sg49
I00
sg50
Nsg51
I12
sbag10
ag43
ag52
ag34
ag31
ag19
ag13
asg46
Nsg47
g48
sS'r'
I5
sg49
I00
sg50
Nsg51
I10
sbag40
ag6
ag10
ag52
ag22
asg46
Nsg47
g48
sS'r'
I5
sg49
I00
sg50
Nsg51
I5
sbag28
ag55
ag6
ag10
ag16
ag37
ag43
asg46
Nsg47
g48
sS'r'
I5
sg49
I00
sg50
Nsg51
I1
sbag25
ag34
ag19
ag43
ag13
ag55
ag22
asg46
Nsg47
g48
sS'r'
I5
sg49
I00
sg50
Nsg51
I4
sbag6
ag40
ag43
ag55
ag10
ag22
asg46
Nsg47
g48
sS'r'
I5
sg49
I00
sg50
Nsg51
I9
sbag55
ag34
ag28
asg46
Nsg47
g48
sS'r'
I5
sg49
I00
sg50
Nsg51
I2
sbag6
ag52
ag28
ag37
asg46
Nsg47
g48
sS'r'
I5
sg49
I00
sg50
Nsg51
I3
sbag52
ag13
ag6
ag22
ag31
ag40
ag10
ag55
asg46
Nsg47
g48
sS'r'
I5
sg49
I00
sg50
Nsg51
I13
sbag34
ag22
ag28
ag55
ag37
asg46
Nsg47
g48
sS'r'
I5
sg49
I00
sg50
Nsg51
I7
sbag6
ag37
ag31
ag16
ag34
ag25
ag43
asg46
Nsg47
g48
sS'r'
I5
sg49
I00
sg50
Nsg51
I14
sbag31
ag16
ag25
ag40
ag19
ag52
ag34
ag22
ag43
asg46
Nsg47
g48
sS'r'
I5
sg49
I00
sg50
Nsg51
I0
sbag31
ag22
ag19
ag28
ag34
ag52
ag13
ag43
ag25
ag37
ag55
ag40
ag16
ag10
asS'verbose'
p58
I0
sS'cCount'
p59
I0
sS'win'
p60
NsS'strat'
p61
I0
sS'nNodes'
p62
I15
sS'intervals'
p63
I500
sS'unit'
p64
F0.11600000000000001
sS'edgeList'
p65
(lp66
(iGraph
Edge
p67
(dp68
g47
g48
sS'line'
p69
NsS'L'
(lp70
g19
ag16
asS'triangles'
p71
(lp72
(iGraph
Triangle
p73
(dp74
S'nodes'
p75
(lp76
g19
ag16
ag6
asS'edges'
p77
(lp78
g67
a(iGraph
Edge
p79
(dp80
g47
g48
sg69
NsS'L'
(lp81
g6
ag19
asg71
(lp82
g73
a(iGraph
Triangle
p83
(dp84
g75
(lp85
g19
ag22
ag6
asg77
(lp86
(iGraph
Edge
p87
(dp88
g47
g48
sg69
NsS'L'
(lp89
g19
ag22
asg71
(lp90
(iGraph
Triangle
p91
(dp92
g75
(lp93
g19
ag16
ag22
asg77
(lp94
g67
ag87
a(iGraph
Edge
p95
(dp96
g47
g48
sg69
NsS'L'
(lp97
g22
ag16
asg71
(lp98
g91
a(iGraph
Triangle
p99
(dp100
g75
(lp101
g16
ag13
ag22
asg77
(lp102
(iGraph
Edge
p103
(dp104
g47
g48
sg69
NsS'L'
(lp105
g16
ag13
asg71
(lp106
(iGraph
Triangle
p107
(dp108
g75
(lp109
g10
ag13
ag16
asg77
(lp110
(iGraph
Edge
p111
(dp112
g47
g48
sg69
NsS'L'
(lp113
g10
ag13
asg71
(lp114
(iGraph
Triangle
p115
(dp116
g75
(lp117
g10
ag13
ag34
asg77
(lp118
g111
a(iGraph
Edge
p119
(dp120
g47
g48
sg69
NsS'L'
(lp121
g10
ag34
asg71
(lp122
(iGraph
Triangle
p123
(dp124
g75
(lp125
g31
ag34
ag10
asg77
(lp126
(iGraph
Edge
p127
(dp128
g47
g48
sg69
NsS'L'
(lp129
g31
ag34
asg71
(lp130
(iGraph
Triangle
p131
(dp132
g75
(lp133
g31
ag34
ag6
asg77
(lp134
g127
a(iGraph
Edge
p135
(dp136
g47
g48
sg69
NsS'L'
(lp137
g6
ag31
asg71
(lp138
g131
a(iGraph
Triangle
p139
(dp140
g75
(lp141
g6
ag10
ag31
asg77
(lp142
(iGraph
Edge
p143
(dp144
g47
g48
sg69
NsS'L'
(lp145
g6
ag10
asg71
(lp146
g139
a(iGraph
Triangle
p147
(dp148
g75
(lp149
g6
ag10
ag34
asg77
(lp150
g143
a(iGraph
Edge
p151
(dp152
g47
g48
sg69
NsS'L'
(lp153
g34
ag6
asg71
(lp154
g131
ag147
a(iGraph
Triangle
p155
(dp156
g75
(lp157
g6
ag40
ag34
asg77
(lp158
(iGraph
Edge
p159
(dp160
g47
g48
sg69
NsS'L'
(lp161
g6
ag40
asg71
(lp162
(iGraph
Triangle
p163
(dp164
g75
(lp165
g16
ag6
ag40
asg77
(lp166
(iGraph
Edge
p167
(dp168
g47
g48
sg69
NsS'L'
(lp169
g16
ag6
asg71
(lp170
g73
a(iGraph
Triangle
p171
(dp172
g75
(lp173
g52
ag16
ag6
asg77
(lp174
(iGraph
Edge
p175
(dp176
g47
g48
sg69
NsS'L'
(lp177
g52
ag16
asg71
(lp178
(iGraph
Triangle
p179
(dp180
g75
(lp181
g19
ag16
ag52
asg77
(lp182
g67
a(iGraph
Edge
p183
(dp184
g47
g48
sg69
NsS'L'
(lp185
g52
ag19
asg71
(lp186
g179
a(iGraph
Triangle
p187
(dp188
g75
(lp189
g6
ag19
ag52
asg77
(lp190
g79
a(iGraph
Edge
p191
(dp192
g47
g48
sg69
NsS'L'
(lp193
g6
ag52
asg71
(lp194
g171
a(iGraph
Triangle
p195
(dp196
g75
(lp197
g6
ag40
ag52
asg77
(lp198
g159
ag191
a(iGraph
Edge
p199
(dp200
g47
g48
sg69
NsS'L'
(lp201
g40
ag52
asg71
(lp202
(iGraph
Triangle
p203
(dp204
g75
(lp205
g52
ag16
ag40
asg77
(lp206
g175
ag199
a(iGraph
Edge
p207
(dp208
g47
g48
sg69
NsS'L'
(lp209
g40
ag16
asg71
(lp210
g203
ag163
asS'notColored'
p211
I1
sbasba(iGraph
Triangle
p212
(dp213
g75
(lp214
g37
ag40
ag52
asg77
(lp215
(iGraph
Edge
p216
(dp217
g47
g48
sg69
NsS'L'
(lp218
g37
ag40
asg71
(lp219
(iGraph
Triangle
p220
(dp221
g75
(lp222
g37
ag40
ag34
asg77
(lp223
g216
a(iGraph
Edge
p224
(dp225
g47
g48
sg69
NsS'L'
(lp226
g34
ag37
asg71
(lp227
(iGraph
Triangle
p228
(dp229
g75
(lp230
g31
ag34
ag37
asg77
(lp231
g127
a(iGraph
Edge
p232
(dp233
g47
g48
sg69
NsS'L'
(lp234
g37
ag31
asg71
(lp235
g228
a(iGraph
Triangle
p236
(dp237
g75
(lp238
g37
ag10
ag31
asg77
(lp239
(iGraph
Edge
p240
(dp241
g47
g48
sg69
NsS'L'
(lp242
g37
ag10
asg71
(lp243
(iGraph
Triangle
p244
(dp245
g75
(lp246
g10
ag13
ag37
asg77
(lp247
g111
ag240
a(iGraph
Edge
p248
(dp249
g47
g48
sg69
NsS'L'
(lp250
g13
ag37
asg71
(lp251
g244
a(iGraph
Triangle
p252
(dp253
g75
(lp254
g13
ag34
ag37
asg77
(lp255
(iGraph
Edge
p256
(dp257
g47
g48
sg69
NsS'L'
(lp258
g13
ag34
asg71
(lp259
g115
a(iGraph
Triangle
p260
(dp261
g75
(lp262
g13
ag34
ag22
asg77
(lp263
g256
a(iGraph
Edge
p264
(dp265
g47
g48
sg69
NsS'L'
(lp266
g22
ag13
asg71
(lp267
g99
ag260
a(iGraph
Triangle
p268
(dp269
g75
(lp270
g22
ag13
ag28
asg77
(lp271
g264
a(iGraph
Edge
p272
(dp273
g47
g48
sg69
NsS'L'
(lp274
g28
ag22
asg71
(lp275
(iGraph
Triangle
p276
(dp277
g75
(lp278
g25
ag28
ag22
asg77
(lp279
(iGraph
Edge
p280
(dp281
g47
g48
sg69
NsS'L'
(lp282
g25
ag28
asg71
(lp283
g276
a(iGraph
Triangle
p284
(dp285
g75
(lp286
g25
ag28
ag43
asg77
(lp287
g280
a(iGraph
Edge
p288
(dp289
g47
g48
sg69
NsS'L'
(lp290
g43
ag25
asg71
(lp291
g284
a(iGraph
Triangle
p292
(dp293
g75
(lp294
g6
ag25
ag43
asg77
(lp295
(iGraph
Edge
p296
(dp297
g47
g48
sg69
NsS'L'
(lp298
g6
ag25
asg71
(lp299
(iGraph
Triangle
p300
(dp301
g75
(lp302
g6
ag10
ag25
asg77
(lp303
g143
ag296
a(iGraph
Edge
p304
(dp305
g47
g48
sg69
NsS'L'
(lp306
g10
ag25
asg71
(lp307
g300
a(iGraph
Triangle
p308
(dp309
g75
(lp310
g43
ag25
ag10
asg77
(lp311
g288
a(iGraph
Edge
p312
(dp313
g47
g48
sg69
NsS'L'
(lp314
g10
ag43
asg71
(lp315
(iGraph
Triangle
p316
(dp317
g75
(lp318
g6
ag10
ag43
asg77
(lp319
g143
a(iGraph
Edge
p320
(dp321
g47
g48
sg69
NsS'L'
(lp322
g43
ag6
asg71
(lp323
g316
a(iGraph
Triangle
p324
(dp325
g75
(lp326
g6
ag31
ag43
asg77
(lp327
g135
ag320
a(iGraph
Edge
p328
(dp329
g47
g48
sg69
NsS'L'
(lp330
g43
ag31
asg71
(lp331
(iGraph
Triangle
p332
(dp333
g75
(lp334
g31
ag28
ag43
asg77
(lp335
(iGraph
Edge
p336
(dp337
g47
g48
sg69
NsS'L'
(lp338
g31
ag28
asg71
(lp339
(iGraph
Triangle
p340
(dp341
g75
(lp342
g31
ag34
ag28
asg77
(lp343
g127
ag336
a(iGraph
Edge
p344
(dp345
g47
g48
sg69
NsS'L'
(lp346
g28
ag34
asg71
(lp347
g340
a(iGraph
Triangle
p348
(dp349
g75
(lp350
g13
ag34
ag28
asg77
(lp351
g256
a(iGraph
Edge
p352
(dp353
g47
g48
sg69
NsS'L'
(lp354
g28
ag13
asg71
(lp355
g348
ag268
a(iGraph
Triangle
p356
(dp357
g75
(lp358
g28
ag13
ag55
asg77
(lp359
g352
a(iGraph
Edge
p360
(dp361
g47
g48
sg69
NsS'L'
(lp362
g28
ag55
asg71
(lp363
(iGraph
Triangle
p364
(dp365
g75
(lp366
g31
ag28
ag55
asg77
(lp367
g336
a(iGraph
Edge
p368
(dp369
g47
g48
sg69
NsS'L'
(lp370
g31
ag55
asg71
(lp371
g364
a(iGraph
Triangle
p372
(dp373
g75
(lp374
g31
ag55
ag16
asg77
(lp375
g368
a(iGraph
Edge
p376
(dp377
g47
g48
sg69
NsS'L'
(lp378
g16
ag31
asg71
(lp379
g372
a(iGraph
Triangle
p380
(dp381
g75
(lp382
g6
ag31
ag16
asg77
(lp383
g135
ag167
ag376
asba(iGraph
Triangle
p384
(dp385
g75
(lp386
g10
ag31
ag16
asg77
(lp387
(iGraph
Edge
p388
(dp389
g47
g48
sg69
NsS'L'
(lp390
g10
ag31
asg71
(lp391
g123
ag139
ag236
a(iGraph
Triangle
p392
(dp393
g75
(lp394
g10
ag31
ag43
asg77
(lp395
g388
ag312
ag328
asbag384
asg211
I1
sba(iGraph
Edge
p396
(dp397
g47
g48
sg69
NsS'L'
(lp398
g10
ag16
asg71
(lp399
g107
a(iGraph
Triangle
p400
(dp401
g75
(lp402
g6
ag10
ag16
asg77
(lp403
g143
ag167
ag396
asbag384
asg211
I1
sbag376
asbasg211
I1
sba(iGraph
Edge
p404
(dp405
g47
g48
sg69
NsS'L'
(lp406
g55
ag16
asg71
(lp407
(iGraph
Triangle
p408
(dp409
g75
(lp410
g52
ag16
ag55
asg77
(lp411
g175
a(iGraph
Edge
p412
(dp413
g47
g48
sg69
NsS'L'
(lp414
g52
ag55
asg71
(lp415
g408
asg211
I1
sbag404
asbag372
a(iGraph
Triangle
p416
(dp417
g75
(lp418
g16
ag13
ag55
asg77
(lp419
g103
ag404
a(iGraph
Edge
p420
(dp421
g47
g48
sg69
NsS'L'
(lp422
g55
ag13
asg71
(lp423
g416
a(iGraph
Triangle
p424
(dp425
g75
(lp426
g22
ag13
ag55
asg77
(lp427
g264
a(iGraph
Edge
p428
(dp429
g47
g48
sg69
NsS'L'
(lp430
g22
ag55
asg71
(lp431
(iGraph
Triangle
p432
(dp433
g75
(lp434
g22
ag16
ag55
asg77
(lp435
g95
ag428
ag404
asbag424
a(iGraph
Triangle
p436
(dp437
g75
(lp438
g25
ag55
ag22
asg77
(lp439
(iGraph
Edge
p440
(dp441
g47
g48
sg69
NsS'L'
(lp442
g25
ag55
asg71
(lp443
(iGraph
Triangle
p444
(dp445
g75
(lp446
g25
ag28
ag55
asg77
(lp447
g280
ag440
ag360
asbag436
asg211
I1
sba(iGraph
Edge
p448
(dp449
g47
g48
sg69
NsS'L'
(lp450
g25
ag22
asg71
(lp451
g276
a(iGraph
Triangle
p452
(dp453
g75
(lp454
g6
ag25
ag22
asg77
(lp455
g296
a(iGraph
Edge
p456
(dp457
g47
g48
sg69
NsS'L'
(lp458
g6
ag22
asg71
(lp459
g83
a(iGraph
Triangle
p460
(dp461
g75
(lp462
g16
ag6
ag22
asg77
(lp463
g167
ag95
ag456
asbag452
a(iGraph
Triangle
p464
(dp465
g75
(lp466
g34
ag6
ag22
asg77
(lp467
g151
a(iGraph
Edge
p468
(dp469
g47
g48
sg69
NsS'L'
(lp470
g22
ag34
asg71
(lp471
g260
a(iGraph
Triangle
p472
(dp473
g75
(lp474
g28
ag34
ag22
asg77
(lp475
g344
ag272
ag468
asbag464
asg211
I1
sbag456
asbasg211
I1
sbag448
asbag436
asg211
I1
sbag428
asba(iGraph
Triangle
p476
(dp477
g75
(lp478
g22
ag55
ag28
asg77
(lp479
g428
ag272
ag360
asbasg211
I1
sbag420
asbag356
asg211
I1
sbasbag432
asg211
I1
sbasbasg211
I1
sbag360
asbag444
ag476
ag356
asg211
I1
sbag420
asbasg211
I1
sbag344
asbag472
asg211
I1
sbasbag332
ag364
asg211
I1
sbag328
a(iGraph
Edge
p480
(dp481
g47
g48
sg69
NsS'L'
(lp482
g28
ag43
asg71
(lp483
g332
ag284
asg211
I1
sbasbag324
a(iGraph
Triangle
p484
(dp485
g75
(lp486
g43
ag37
ag31
asg77
(lp487
(iGraph
Edge
p488
(dp489
g47
g48
sg69
NsS'L'
(lp490
g43
ag37
asg71
(lp491
(iGraph
Triangle
p492
(dp493
g75
(lp494
g37
ag40
ag43
asg77
(lp495
g216
ag488
a(iGraph
Edge
p496
(dp497
g47
g48
sg69
NsS'L'
(lp498
g43
ag40
asg71
(lp499
g492
a(iGraph
Triangle
p500
(dp501
g75
(lp502
g25
ag40
ag43
asg77
(lp503
(iGraph
Edge
p504
(dp505
g47
g48
sg69
NsS'L'
(lp506
g25
ag40
asg71
(lp507
(iGraph
Triangle
p508
(dp509
g75
(lp510
g6
ag25
ag40
asg77
(lp511
g296
ag159
ag504
asbag500
asg211
I1
sbag288
ag496
asba(iGraph
Triangle
p512
(dp513
g75
(lp514
g6
ag40
ag43
asg77
(lp515
g159
ag320
ag496
asbasg211
I1
sbasba(iGraph
Triangle
p516
(dp517
g75
(lp518
g37
ag10
ag43
asg77
(lp519
g240
ag488
ag312
asbag484
asg211
I1
sbag328
ag232
asbag392
asg211
I1
sbasbag292
ag512
asg211
I1
sbag312
asbag516
ag392
ag308
asg211
I1
sbag304
asbasg211
I1
sbasbag452
ag292
ag508
asg211
I1
sbag320
ag288
asbag500
ag308
asg211
I1
sbag480
asbag444
asg211
I1
sbag448
ag272
asba(iGraph
Triangle
p520
(dp521
g75
(lp522
g19
ag22
ag28
asg77
(lp523
g87
a(iGraph
Edge
p524
(dp525
g47
g48
sg69
NsS'L'
(lp526
g19
ag28
asg71
(lp527
g520
asg211
I1
sbag272
asbag472
ag268
ag476
asg211
I1
sbag352
asbag424
asg211
I1
sbag468
asbag348
ag252
asg211
I1
sbag248
ag224
asbasg211
I1
sbasbag236
a(iGraph
Triangle
p528
(dp529
g75
(lp530
g37
ag10
ag34
asg77
(lp531
g240
ag224
ag119
asbag516
asg211
I1
sbag232
ag388
asbag484
asg211
I1
sbag224
asbag220
ag528
a(iGraph
Triangle
p532
(dp533
g75
(lp534
g52
ag37
ag34
asg77
(lp535
(iGraph
Edge
p536
(dp537
g47
g48
sg69
NsS'L'
(lp538
g52
ag37
asg71
(lp539
g212
a(iGraph
Triangle
p540
(dp541
g75
(lp542
g52
ag37
ag19
asg77
(lp543
g536
ag183
a(iGraph
Edge
p544
(dp545
g47
g48
sg69
NsS'L'
(lp546
g19
ag37
asg71
(lp547
g540
asg211
I1
sbasbag532
asg211
I1
sba(iGraph
Edge
p548
(dp549
g47
g48
sg69
NsS'L'
(lp550
g34
ag52
asg71
(lp551
(iGraph
Triangle
p552
(dp553
g75
(lp554
g6
ag52
ag34
asg77
(lp555
g191
ag151
ag548
asbag532
a(iGraph
Triangle
p556
(dp557
g75
(lp558
g34
ag40
ag52
asg77
(lp559
(iGraph
Edge
p560
(dp561
g47
g48
sg69
NsS'L'
(lp562
g34
ag40
asg71
(lp563
g220
ag155
ag556
asg211
I1
sbag548
ag199
asbasg211
I1
sbag224
asbag252
asg211
I1
sbag560
asbag212
ag492
asg211
I1
sbag536
ag199
asbag195
ag556
asg211
I1
sbasbag187
ag552
asg211
I1
sbag183
asbag540
asg211
I1
sbag175
asbag171
ag408
ag203
asg211
I1
sbag191
ag167
asbag400
ag380
ag460
ag163
asg211
I1
sbag207
ag159
asbag508
ag155
ag195
ag512
asg211
I1
sbag151
ag560
asbag552
ag464
asg211
I1
sbag119
asbag316
ag300
ag400
asg211
I1
sbag135
ag388
asbag324
ag380
asg211
I1
sbag151
asbag340
ag228
ag123
asg211
I1
sbag388
ag119
asbag115
ag147
ag528
asg211
I1
sbag256
asbag244
ag107
asg211
I1
sbag396
ag103
asbag99
ag416
asg211
I1
sbag95
ag264
asbag460
ag432
asg211
I1
sbasbag83
ag520
asg211
I1
sbag79
ag456
asbag187
asg211
I1
sbag167
asbag91
ag179
asg211
I1
sbag175
ag127
ag111
ag336
ag143
ag368
ag103
ag280
ag216
ag135
ag87
ag167
ag296
ag240
ag504
ag488
ag388
ag159
ag79
ag191
ag536
ag95
ag183
ag256
ag496
ag376
ag207
ag344
ag524
ag224
ag264
ag560
ag151
ag288
ag396
ag404
ag119
ag440
ag232
ag199
ag544
ag456
ag480
ag412
ag304
ag448
ag428
ag548
ag352
ag360
ag420
ag312
ag328
ag320
ag248
ag468
ag272
asS'check'
p564
F0.11600000000000001
sg71
(lp565
g73
ag91
ag179
ag171
ag408
ag203
ag131
ag340
ag228
ag123
ag115
ag244
ag107
ag332
ag364
ag139
ag147
ag316
ag300
ag400
ag372
ag99
ag416
ag276
ag284
ag444
ag220
ag212
ag492
ag324
ag380
ag83
ag520
ag460
ag163
ag452
ag292
ag508
ag236
ag528
ag516
ag500
ag484
ag392
ag384
ag155
ag195
ag512
ag187
ag552
ag540
ag532
ag432
ag260
ag348
ag252
ag472
ag268
ag424
ag556
ag464
ag308
ag436
ag476
ag356
asba(iGraph
Graph
p566
(dp567
g4
(lp568
(iGraph
Node
p569
(dp570
g8
(lp571
(iGraph
Node
p572
(dp573
g8
(lp574
(iGraph
Node
p575
(dp576
g8
(lp577
g572
a(iGraph
Node
p578
(dp579
g8
(lp580
g569
a(iGraph
Node
p581
(dp582
g8
(lp583
(iGraph
Node
p584
(dp585
g8
(lp586
g581
a(iGraph
Node
p587
(dp588
g8
(lp589
g584
ag572
ag578
a(iGraph
Node
p590
(dp591
g8
(lp592
g572
ag587
a(iGraph
Node
p593
(dp594
g8
(lp595
(iGraph
Node
p596
(dp597
g8
(lp598
g581
ag572
ag593
a(iGraph
Node
p599
(dp600
g8
(lp601
(iGraph
Node
p602
(dp603
g8
(lp604
g599
ag596
a(iGraph
Node
p605
(dp606
g8
(lp607
g596
ag575
ag584
ag602
a(iGraph
Node
p608
(dp609
g8
(lp610
g569
ag584
ag596
ag590
ag605
ag575
ag581
ag599
asg46
Nsg47
g48
sS'r'
I5
sg49
I00
sg50
Nsg51
I10
sba(iGraph
Node
p611
(dp612
g8
(lp613
g593
ag584
ag572
ag578
ag587
ag569
ag590
ag602
ag596
ag605
asg46
Nsg47
g48
sS'r'
I5
sg49
I00
sg50
Nsg51
I13
sbag587
ag599
asg46
Nsg47
g48
sS'r'
I5
sg49
I00
sg50
Nsg51
I6
sbag611
ag590
ag572
ag584
ag581
asg46
Nsg47
g48
sS'r'
I5
sg49
I00
sg50
Nsg51
I12
sbag596
ag578
ag584
ag572
ag590
ag605
ag608
asg46
Nsg47
g48
sS'r'
I5
sg49
I00
sg50
Nsg51
I5
sbag605
ag602
ag578
ag608
ag590
ag569
ag611
asg46
Nsg47
g48
sS'r'
I5
sg49
I00
sg50
Nsg51
I2
sbag611
ag584
ag575
ag590
ag578
ag572
asg46
Nsg47
g48
sS'r'
I5
sg49
I00
sg50
Nsg51
I14
sbag608
ag611
ag596
ag602
ag599
asg46
Nsg47
g48
sS'r'
I5
sg49
I00
sg50
Nsg51
I1
sbag575
ag611
ag605
asg46
Nsg47
g48
sS'r'
I5
sg49
I00
sg50
Nsg51
I9
sbag608
ag611
ag593
ag605
ag575
ag599
ag569
ag572
ag602
asg46
Nsg47
g48
sS'r'
I5
sg49
I00
sg50
Nsg51
I8
sbag596
ag578
ag572
ag608
ag575
ag602
asg46
Nsg47
g48
sS'r'
I5
sg49
I00
sg50
Nsg51
I3
sbag599
ag596
ag575
ag587
ag611
ag593
asg46
Nsg47
g48
sS'r'
I5
sg49
I00
sg50
Nsg51
I7
sbag605
ag593
ag569
ag587
ag584
ag608
ag581
asg46
Nsg47
g48
sS'r'
I5
sg49
I00
sg50
Nsg51
I11
sbag569
ag587
ag590
ag596
ag581
ag611
ag593
ag584
ag599
ag602
asg46
Nsg47
g48
sS'r'
I5
sg49
I00
sg50
Nsg51
I4
sbag608
ag578
ag575
ag611
ag596
ag584
asg46
Nsg47
g48
sS'r'
I5
sg49
I00
sg50
Nsg51
I0
sbag590
ag596
ag581
ag572
ag599
ag605
ag578
ag584
ag587
ag608
ag575
ag602
ag611
ag593
asg58
I0
sg59
I0
sg60
Nsg61
I0
sg62
I15
sg63
I500
sg64
F0.128
sg65
(lp614
(iGraph
Edge
p615
(dp616
g47
g48
sg69
NsS'L'
(lp617
g572
ag575
asg71
(lp618
(iGraph
Triangle
p619
(dp620
g75
(lp621
g572
ag575
ag569
asg77
(lp622
g615
a(iGraph
Edge
p623
(dp624
g47
g48
sg69
NsS'L'
(lp625
g569
ag572
asg71
(lp626
g619
a(iGraph
Triangle
p627
(dp628
g75
(lp629
g569
ag572
ag596
asg77
(lp630
g623
a(iGraph
Edge
p631
(dp632
g47
g48
sg69
NsS'L'
(lp633
g596
ag569
asg71
(lp634
g627
a(iGraph
Triangle
p635
(dp636
g75
(lp637
g608
ag569
ag596
asg77
(lp638
(iGraph
Edge
p639
(dp640
g47
g48
sg69
NsS'L'
(lp641
g608
ag569
asg71
(lp642
g635
a(iGraph
Triangle
p643
(dp644
g75
(lp645
g608
ag569
ag584
asg77
(lp646
g639
a(iGraph
Edge
p647
(dp648
g47
g48
sg69
NsS'L'
(lp649
g608
ag584
asg71
(lp650
(iGraph
Triangle
p651
(dp652
g75
(lp653
g581
ag584
ag608
asg77
(lp654
(iGraph
Edge
p655
(dp656
g47
g48
sg69
NsS'L'
(lp657
g581
ag584
asg71
(lp658
(iGraph
Triangle
p659
(dp660
g75
(lp661
g581
ag584
ag572
asg77
(lp662
g655
a(iGraph
Edge
p663
(dp664
g47
g48
sg69
NsS'L'
(lp665
g581
ag572
asg71
(lp666
(iGraph
Triangle
p667
(dp668
g75
(lp669
g572
ag575
ag581
asg77
(lp670
g615
ag663
a(iGraph
Edge
p671
(dp672
g47
g48
sg69
NsS'L'
(lp673
g581
ag575
asg71
(lp674
g667
a(iGraph
Triangle
p675
(dp676
g75
(lp677
g581
ag584
ag575
asg77
(lp678
g655
ag671
a(iGraph
Edge
p679
(dp680
g47
g48
sg69
NsS'L'
(lp681
g575
ag584
asg71
(lp682
(iGraph
Triangle
p683
(dp684
g75
(lp685
g572
ag575
ag584
asg77
(lp686
g615
a(iGraph
Edge
p687
(dp688
g47
g48
sg69
NsS'L'
(lp689
g572
ag584
asg71
(lp690
g683
ag659
a(iGraph
Triangle
p691
(dp692
g75
(lp693
g587
ag584
ag572
asg77
(lp694
(iGraph
Edge
p695
(dp696
g47
g48
sg69
NsS'L'
(lp697
g587
ag584
asg71
(lp698
g691
a(iGraph
Triangle
p699
(dp700
g75
(lp701
g587
ag584
ag605
asg77
(lp702
g695
a(iGraph
Edge
p703
(dp704
g47
g48
sg69
NsS'L'
(lp705
g587
ag605
asg71
(lp706
g699
a(iGraph
Triangle
p707
(dp708
g75
(lp709
g575
ag605
ag587
asg77
(lp710
(iGraph
Edge
p711
(dp712
g47
g48
sg69
NsS'L'
(lp713
g575
ag605
asg71
(lp714
(iGraph
Triangle
p715
(dp716
g75
(lp717
g575
ag605
ag584
asg77
(lp718
g711
ag679
a(iGraph
Edge
p719
(dp720
g47
g48
sg69
NsS'L'
(lp721
g605
ag584
asg71
(lp722
g699
a(iGraph
Triangle
p723
(dp724
g75
(lp725
g608
ag584
ag605
asg77
(lp726
g647
a(iGraph
Edge
p727
(dp728
g47
g48
sg69
NsS'L'
(lp729
g608
ag605
asg71
(lp730
g723
a(iGraph
Triangle
p731
(dp732
g75
(lp733
g596
ag605
ag608
asg77
(lp734
(iGraph
Edge
p735
(dp736
g47
g48
sg69
NsS'L'
(lp737
g596
ag605
asg71
(lp738
(iGraph
Triangle
p739
(dp740
g75
(lp741
g596
ag599
ag605
asg77
(lp742
(iGraph
Edge
p743
(dp744
g47
g48
sg69
NsS'L'
(lp745
g596
ag599
asg71
(lp746
(iGraph
Triangle
p747
(dp748
g75
(lp749
g599
ag602
ag596
asg77
(lp750
(iGraph
Edge
p751
(dp752
g47
g48
sg69
NsS'L'
(lp753
g599
ag602
asg71
(lp754
(iGraph
Triangle
p755
(dp756
g75
(lp757
g599
ag602
ag590
asg77
(lp758
g751
a(iGraph
Edge
p759
(dp760
g47
g48
sg69
NsS'L'
(lp761
g590
ag599
asg71
(lp762
(iGraph
Triangle
p763
(dp764
g75
(lp765
g572
ag590
ag599
asg77
(lp766
(iGraph
Edge
p767
(dp768
g47
g48
sg69
NsS'L'
(lp769
g572
ag590
asg71
(lp770
(iGraph
Triangle
p771
(dp772
g75
(lp773
g587
ag572
ag590
asg77
(lp774
(iGraph
Edge
p775
(dp776
g47
g48
sg69
NsS'L'
(lp777
g587
ag572
asg71
(lp778
(iGraph
Triangle
p779
(dp780
g75
(lp781
g572
ag575
ag587
asg77
(lp782
g615
ag775
a(iGraph
Edge
p783
(dp784
g47
g48
sg69
NsS'L'
(lp785
g587
ag575
asg71
(lp786
g779
a(iGraph
Triangle
p787
(dp788
g75
(lp789
g587
ag584
ag575
asg77
(lp790
g695
ag783
ag679
asba(iGraph
Triangle
p791
(dp792
g75
(lp793
g575
ag578
ag587
asg77
(lp794
(iGraph
Edge
p795
(dp796
g47
g48
sg69
NsS'L'
(lp797
g575
ag578
asg71
(lp798
(iGraph
Triangle
p799
(dp800
g75
(lp801
g569
ag578
ag575
asg77
(lp802
(iGraph
Edge
p803
(dp804
g47
g48
sg69
NsS'L'
(lp805
g569
ag578
asg71
(lp806
(iGraph
Triangle
p807
(dp808
g75
(lp809
g569
ag578
ag596
asg77
(lp810
g803
ag631
a(iGraph
Edge
p811
(dp812
g47
g48
sg69
NsS'L'
(lp813
g578
ag596
asg71
(lp814
(iGraph
Triangle
p815
(dp816
g75
(lp817
g581
ag596
ag578
asg77
(lp818
(iGraph
Edge
p819
(dp820
g47
g48
sg69
NsS'L'
(lp821
g581
ag596
asg71
(lp822
(iGraph
Triangle
p823
(dp824
g75
(lp825
g581
ag596
ag572
asg77
(lp826
g819
ag663
a(iGraph
Edge
p827
(dp828
g47
g48
sg69
NsS'L'
(lp829
g572
ag596
asg71
(lp830
g823
ag627
a(iGraph
Triangle
p831
(dp832
g75
(lp833
g572
ag590
ag596
asg77
(lp834
g767
ag827
a(iGraph
Edge
p835
(dp836
g47
g48
sg69
NsS'L'
(lp837
g590
ag596
asg71
(lp838
g831
a(iGraph
Triangle
p839
(dp840
g75
(lp841
g593
ag596
ag590
asg77
(lp842
(iGraph
Edge
p843
(dp844
g47
g48
sg69
NsS'L'
(lp845
g593
ag596
asg71
(lp846
(iGraph
Triangle
p847
(dp848
g75
(lp849
g572
ag596
ag593
asg77
(lp850
g827
a(iGraph
Edge
p851
(dp852
g47
g48
sg69
NsS'L'
(lp853
g572
ag593
asg71
(lp854
(iGraph
Triangle
p855
(dp856
g75
(lp857
g572
ag575
ag593
asg77
(lp858
g615
ag851
a(iGraph
Edge
p859
(dp860
g47
g48
sg69
NsS'L'
(lp861
g575
ag593
asg71
(lp862
g855
a(iGraph
Triangle
p863
(dp864
g75
(lp865
g584
ag593
ag575
asg77
(lp866
(iGraph
Edge
p867
(dp868
g47
g48
sg69
NsS'L'
(lp869
g584
ag593
asg71
(lp870
(iGraph
Triangle
p871
(dp872
g75
(lp873
g611
ag593
ag584
asg77
(lp874
(iGraph
Edge
p875
(dp876
g47
g48
sg69
NsS'L'
(lp877
g611
ag593
asg71
(lp878
(iGraph
Triangle
p879
(dp880
g75
(lp881
g593
ag596
ag611
asg77
(lp882
g843
ag875
a(iGraph
Edge
p883
(dp884
g47
g48
sg69
NsS'L'
(lp885
g596
ag611
asg71
(lp886
(iGraph
Triangle
p887
(dp888
g75
(lp889
g572
ag596
ag611
asg77
(lp890
g827
a(iGraph
Edge
p891
(dp892
g47
g48
sg69
NsS'L'
(lp893
g572
ag611
asg71
(lp894
(iGraph
Triangle
p895
(dp896
g75
(lp897
g569
ag572
ag611
asg77
(lp898
g623
a(iGraph
Edge
p899
(dp900
g47
g48
sg69
NsS'L'
(lp901
g611
ag569
asg71
(lp902
g895
a(iGraph
Triangle
p903
(dp904
g75
(lp905
g569
ag578
ag611
asg77
(lp906
g803
ag899
a(iGraph
Edge
p907
(dp908
g47
g48
sg69
NsS'L'
(lp909
g611
ag578
asg71
(lp910
g903
a(iGraph
Triangle
p911
(dp912
g75
(lp913
g611
ag593
ag578
asg77
(lp914
g875
ag907
a(iGraph
Edge
p915
(dp916
g47
g48
sg69
NsS'L'
(lp917
g578
ag593
asg71
(lp918
(iGraph
Triangle
p919
(dp920
g75
(lp921
g593
ag596
ag578
asg77
(lp922
g843
ag915
ag811
asbag911
a(iGraph
Triangle
p923
(dp924
g75
(lp925
g575
ag578
ag593
asg77
(lp926
g795
ag859
ag915
asbasg211
I1
sbasba(iGraph
Triangle
p927
(dp928
g75
(lp929
g578
ag596
ag611
asg77
(lp930
g811
ag907
ag883
asba(iGraph
Triangle
p931
(dp932
g75
(lp933
g578
ag587
ag611
asg77
(lp934
(iGraph
Edge
p935
(dp936
g47
g48
sg69
NsS'L'
(lp937
g578
ag587
asg71
(lp938
g791
ag931
asg211
I1
sbag907
a(iGraph
Edge
p939
(dp940
g47
g48
sg69
NsS'L'
(lp941
g587
ag611
asg71
(lp942
(iGraph
Triangle
p943
(dp944
g75
(lp945
g587
ag584
ag611
asg77
(lp946
g695
ag939
a(iGraph
Edge
p947
(dp948
g47
g48
sg69
NsS'L'
(lp949
g584
ag611
asg71
(lp950
g943
ag871
a(iGraph
Triangle
p951
(dp952
g75
(lp953
g584
ag611
ag569
asg77
(lp954
g947
a(iGraph
Edge
p955
(dp956
g47
g48
sg69
NsS'L'
(lp957
g584
ag569
asg71
(lp958
(iGraph
Triangle
p959
(dp960
g75
(lp961
g569
ag572
ag584
asg77
(lp962
g623
ag955
ag687
asbag643
ag951
a(iGraph
Triangle
p963
(dp964
g75
(lp965
g575
ag569
ag584
asg77
(lp966
(iGraph
Edge
p967
(dp968
g47
g48
sg69
NsS'L'
(lp969
g575
ag569
asg71
(lp970
g619
a(iGraph
Triangle
p971
(dp972
g75
(lp973
g608
ag569
ag575
asg77
(lp974
g639
a(iGraph
Edge
p975
(dp976
g47
g48
sg69
NsS'L'
(lp977
g608
ag575
asg71
(lp978
g971
a(iGraph
Triangle
p979
(dp980
g75
(lp981
g608
ag584
ag575
asg77
(lp982
g647
ag975
ag679
asba(iGraph
Triangle
p983
(dp984
g75
(lp985
g575
ag605
ag608
asg77
(lp986
g711
ag975
ag727
asba(iGraph
Triangle
p987
(dp988
g75
(lp989
g608
ag575
ag581
asg77
(lp990
g975
a(iGraph
Edge
p991
(dp992
g47
g48
sg69
NsS'L'
(lp993
g608
ag581
asg71
(lp994
g651
a(iGraph
Triangle
p995
(dp996
g75
(lp997
g581
ag596
ag608
asg77
(lp998
g819
ag991
a(iGraph
Edge
p999
(dp1000
g47
g48
sg69
NsS'L'
(lp1001
g608
ag596
asg71
(lp1002
g995
ag635
a(iGraph
Triangle
p1003
(dp1004
g75
(lp1005
g596
ag599
ag608
asg77
(lp1006
g743
ag999
a(iGraph
Edge
p1007
(dp1008
g47
g48
sg69
NsS'L'
(lp1009
g599
ag608
asg71
(lp1010
g1003
a(iGraph
Triangle
p1011
(dp1012
g75
(lp1013
g608
ag584
ag599
asg77
(lp1014
g647
ag1007
a(iGraph
Edge
p1015
(dp1016
g47
g48
sg69
NsS'L'
(lp1017
g599
ag584
asg71
(lp1018
(iGraph
Triangle
p1019
(dp1020
g75
(lp1021
g599
ag602
ag584
asg77
(lp1022
g751
ag1015
a(iGraph
Edge
p1023
(dp1024
g47
g48
sg69
NsS'L'
(lp1025
g602
ag584
asg71
(lp1026
(iGraph
Triangle
p1027
(dp1028
g75
(lp1029
g581
ag584
ag602
asg77
(lp1030
g655
a(iGraph
Edge
p1031
(dp1032
g47
g48
sg69
NsS'L'
(lp1033
g581
ag602
asg71
(lp1034
g1027
a(iGraph
Triangle
p1035
(dp1036
g75
(lp1037
g581
ag596
ag602
asg77
(lp1038
g819
ag1031
a(iGraph
Edge
p1039
(dp1040
g47
g48
sg69
NsS'L'
(lp1041
g602
ag596
asg71
(lp1042
g1035
ag747
a(iGraph
Triangle
p1043
(dp1044
g75
(lp1045
g572
ag596
ag602
asg77
(lp1046
g827
a(iGraph
Edge
p1047
(dp1048
g47
g48
sg69
NsS'L'
(lp1049
g572
ag602
asg71
(lp1050
(iGraph
Triangle
p1051
(dp1052
g75
(lp1053
g572
ag590
ag602
asg77
(lp1054
g767
ag1047
a(iGraph
Edge
p1055
(dp1056
g47
g48
sg69
NsS'L'
(lp1057
g590
ag602
asg71
(lp1058
g1051
ag755
a(iGraph
Triangle
p1059
(dp1060
g75
(lp1061
g602
ag596
ag590
asg77
(lp1062
g1039
ag1055
ag835
asba(iGraph
Triangle
p1063
(dp1064
g75
(lp1065
g611
ag590
ag602
asg77
(lp1066
(iGraph
Edge
p1067
(dp1068
g47
g48
sg69
NsS'L'
(lp1069
g611
ag590
asg71
(lp1070
(iGraph
Triangle
p1071
(dp1072
g75
(lp1073
g572
ag590
ag611
asg77
(lp1074
g767
ag891
ag1067
asba(iGraph
Triangle
p1075
(dp1076
g75
(lp1077
g611
ag593
ag590
asg77
(lp1078
g875
ag1067
a(iGraph
Edge
p1079
(dp1080
g47
g48
sg69
NsS'L'
(lp1081
g593
ag590
asg71
(lp1082
(iGraph
Triangle
p1083
(dp1084
g75
(lp1085
g572
ag590
ag593
asg77
(lp1086
g767
ag851
ag1079
asbag839
ag1075
asg211
I1
sbasba(iGraph
Triangle
p1087
(dp1088
g75
(lp1089
g590
ag587
ag611
asg77
(lp1090
(iGraph
Edge
p1091
(dp1092
g47
g48
sg69
NsS'L'
(lp1093
g590
ag587
asg71
(lp1094
g771
ag1087
asg211
I1
sbag1067
ag939
asba(iGraph
Triangle
p1095
(dp1096
g75
(lp1097
g611
ag590
ag596
asg77
(lp1098
g1067
ag883
ag835
asbag1063
asg211
I1
sba(iGraph
Edge
p1099
(dp1100
g47
g48
sg69
NsS'L'
(lp1101
g602
ag611
asg71
(lp1102
(iGraph
Triangle
p1103
(dp1104
g75
(lp1105
g584
ag611
ag602
asg77
(lp1106
g947
ag1023
ag1099
asba(iGraph
Triangle
p1107
(dp1108
g75
(lp1109
g602
ag596
ag611
asg77
(lp1110
g1039
ag1099
ag883
asba(iGraph
Triangle
p1111
(dp1112
g75
(lp1113
g572
ag611
ag602
asg77
(lp1114
g891
ag1047
ag1099
asba(iGraph
Triangle
p1115
(dp1116
g75
(lp1117
g602
ag605
ag611
asg77
(lp1118
(iGraph
Edge
p1119
(dp1120
g47
g48
sg69
NsS'L'
(lp1121
g602
ag605
asg71
(lp1122
(iGraph
Triangle
p1123
(dp1124
g75
(lp1125
g599
ag602
ag605
asg77
(lp1126
g751
a(iGraph
Edge
p1127
(dp1128
g47
g48
sg69
NsS'L'
(lp1129
g599
ag605
asg71
(lp1130
g1123
ag739
a(iGraph
Triangle
p1131
(dp1132
g75
(lp1133
g605
ag584
ag599
asg77
(lp1134
g719
ag1127
ag1015
asba(iGraph
Triangle
p1135
(dp1136
g75
(lp1137
g608
ag605
ag599
asg77
(lp1138
g727
ag1007
ag1127
asbasg211
I1
sbag1119
asba(iGraph
Triangle
p1139
(dp1140
g75
(lp1141
g596
ag605
ag602
asg77
(lp1142
g735
ag1039
ag1119
asba(iGraph
Triangle
p1143
(dp1144
g75
(lp1145
g605
ag584
ag602
asg77
(lp1146
g719
ag1119
ag1023
asbag1115
asg211
I1
sbag1099
a(iGraph
Edge
p1147
(dp1148
g47
g48
sg69
NsS'L'
(lp1149
g611
ag605
asg71
(lp1150
(iGraph
Triangle
p1151
(dp1152
g75
(lp1153
g584
ag611
ag605
asg77
(lp1154
g947
ag719
ag1147
asba(iGraph
Triangle
p1155
(dp1156
g75
(lp1157
g596
ag605
ag611
asg77
(lp1158
g735
ag883
ag1147
asbag1115
a(iGraph
Triangle
p1159
(dp1160
g75
(lp1161
g587
ag611
ag605
asg77
(lp1162
g939
ag703
ag1147
asbasg211
I1
sbasbag1063
asg211
I1
sbag1055
asbasg211
I1
sbasba(iGraph
Triangle
p1163
(dp1164
g75
(lp1165
g599
ag602
ag572
asg77
(lp1166
g751
a(iGraph
Edge
p1167
(dp1168
g47
g48
sg69
NsS'L'
(lp1169
g599
ag572
asg71
(lp1170
g763
ag1163
a(iGraph
Triangle
p1171
(dp1172
g75
(lp1173
g572
ag596
ag599
asg77
(lp1174
g827
ag1167
ag743
asba(iGraph
Triangle
p1175
(dp1176
g75
(lp1177
g599
ag584
ag572
asg77
(lp1178
g1015
ag1167
ag687
asbasg211
I1
sbag1047
asbag1043
a(iGraph
Triangle
p1179
(dp1180
g75
(lp1181
g581
ag572
ag602
asg77
(lp1182
g663
ag1031
ag1047
asbag1111
a(iGraph
Triangle
p1183
(dp1184
g75
(lp1185
g572
ag584
ag602
asg77
(lp1186
g687
ag1047
ag1023
asbasg211
I1
sbag1039
asbag1139
ag1059
ag1107
asg211
I1
sbasbag1179
asg211
I1
sbag1023
asbag1019
ag1103
ag1143
ag1183
asg211
I1
sbasbag1011
ag1131
ag1175
asg211
I1
sbasba(iGraph
Triangle
p1187
(dp1188
g75
(lp1189
g590
ag608
ag599
asg77
(lp1190
(iGraph
Edge
p1191
(dp1192
g47
g48
sg69
NsS'L'
(lp1193
g590
ag608
asg71
(lp1194
(iGraph
Triangle
p1195
(dp1196
g75
(lp1197
g608
ag596
ag590
asg77
(lp1198
g999
ag1191
ag835
asbag1187
asg211
I1
sbag759
ag1007
asbag1135
asg211
I1
sbasbag731
ag1195
asg211
I1
sbasbag987
asg211
I1
sbag671
asbasg211
I1
sbag967
asbag799
ag963
asg211
I1
sbag679
ag955
asbasg211
I1
sbag899
asba(iGraph
Triangle
p1199
(dp1200
g75
(lp1201
g584
ag611
ag572
asg77
(lp1202
g947
ag687
ag891
asbag1151
ag1103
asg211
I1
sbasba(iGraph
Triangle
p1203
(dp1204
g75
(lp1205
g587
ag572
ag611
asg77
(lp1206
g775
ag939
ag891
asbag931
ag1087
ag1159
asg211
I1
sbasbasg211
I1
sbasbag951
a(iGraph
Triangle
p1207
(dp1208
g75
(lp1209
g611
ag569
ag596
asg77
(lp1210
g899
ag883
ag631
asbasg211
I1
sbag891
asbag1203
ag1071
ag887
a(iGraph
Triangle
p1211
(dp1212
g75
(lp1213
g611
ag593
ag572
asg77
(lp1214
g875
ag891
ag851
asbag1199
ag1111
asg211
I1
sbag883
asbag879
ag1155
ag1107
ag927
ag1207
ag1095
asg211
I1
sbasbag1075
ag1211
ag911
ag871
asg211
I1
sbag947
ag867
asba(iGraph
Triangle
p1215
(dp1216
g75
(lp1217
g584
ag593
ag572
asg77
(lp1218
g867
ag687
ag851
asbag863
asg211
I1
sbag679
ag859
asbag923
asg211
I1
sbasbag1083
ag847
ag1211
ag1215
asg211
I1
sbag843
asbag839
ag919
ag879
asg211
I1
sbag1079
ag835
asba(iGraph
Triangle
p1219
(dp1220
g75
(lp1221
g596
ag599
ag590
asg77
(lp1222
g743
ag835
ag759
asbag1059
ag1195
ag1095
asg211
I1
sbasbag1171
ag1043
ag887
ag847
asg211
I1
sbasbag815
ag995
ag1035
asg211
I1
sba(iGraph
Edge
p1223
(dp1224
g47
g48
sg69
NsS'L'
(lp1225
g581
ag578
asg71
(lp1226
g815
a(iGraph
Triangle
p1227
(dp1228
g75
(lp1229
g581
ag578
ag575
asg77
(lp1230
g1223
ag671
ag795
asbasg211
I1
sbag811
asbag807
ag919
a(iGraph
Triangle
p1231
(dp1232
g75
(lp1233
g596
ag599
ag578
asg77
(lp1234
g743
ag811
a(iGraph
Edge
p1235
(dp1236
g47
g48
sg69
NsS'L'
(lp1237
g578
ag599
asg71
(lp1238
g1231
asg211
I1
sbasbag927
asg211
I1
sbasbag799
ag903
asg211
I1
sbag967
ag795
asbag1227
ag791
ag923
asg211
I1
sbag783
ag935
asbag707
asg211
I1
sbasbag691
ag771
ag1203
asg211
I1
sbag1091
ag767
asbag831
ag763
ag1051
ag1071
ag1083
asg211
I1
sbag1167
ag759
asbag755
ag1219
ag1187
asg211
I1
sbag1055
asbag747
ag1163
ag1123
ag1019
asg211
I1
sbag743
ag1039
asbag1171
ag1219
ag739
ag1231
ag1003
asg211
I1
sbag735
ag1127
asbag731
ag1139
ag1155
asg211
I1
sbag999
ag727
asbag983
ag1135
asg211
I1
sbag719
asbag1151
ag715
ag1131
ag1143
asg211
I1
sbasbag707
ag983
asg211
I1
sbag783
ag703
asbag1159
asg211
I1
sbag719
asbag787
ag943
asg211
I1
sbag775
ag687
asbag959
ag1199
ag1215
ag1175
ag1183
asg211
I1
sbag679
asbag675
ag787
ag979
ag863
ag715
ag963
asg211
I1
sbasbag1227
ag987
asg211
I1
sbasbag659
ag823
ag1179
asg211
I1
sbag687
asbag651
ag675
ag1027
asg211
I1
sbag991
ag647
asbag643
ag1011
ag723
ag979
asg211
I1
sbag955
asbag971
asg211
I1
sbag999
ag631
asbag807
ag1207
asg211
I1
sbag827
asbag959
ag895
asg211
I1
sbag967
asbag667
ag683
ag779
ag855
asg211
I1
sbag655
ag819
ag695
ag623
ag775
ag639
ag803
ag1223
ag767
ag751
ag827
ag843
ag743
ag1235
ag875
ag647
ag947
ag735
ag867
ag1039
ag811
ag663
ag795
ag935
ag891
ag999
ag711
ag719
ag907
ag1091
ag859
ag967
ag783
ag679
ag1079
ag915
ag1119
ag1191
ag727
ag939
ag899
ag1067
ag851
ag835
ag631
ag1099
ag883
ag1055
ag975
ag991
ag1015
ag955
ag1147
ag687
ag1167
ag1047
ag703
ag759
ag1127
ag671
ag1023
ag1007
ag1031
asg564
F0.128
sg71
(lp1239
g619
ag667
ag683
ag779
ag855
ag659
ag651
ag675
ag1027
ag823
ag815
ag995
ag1035
ag691
ag699
ag787
ag943
ag627
ag959
ag895
ag771
ag1203
ag635
ag643
ag971
ag807
ag799
ag903
ag1227
ag831
ag763
ag1051
ag1071
ag1083
ag755
ag747
ag1163
ag1123
ag1019
ag1171
ag1043
ag887
ag847
ag839
ag919
ag879
ag1219
ag739
ag1231
ag1003
ag1075
ag1211
ag911
ag871
ag1011
ag723
ag979
ag951
ag1199
ag1151
ag1103
ag731
ag1139
ag1155
ag1215
ag863
ag1059
ag1107
ag927
ag1179
ag791
ag923
ag931
ag1111
ag1195
ag715
ag707
ag983
ag1131
ag1143
ag1087
ag963
ag1115
ag1187
ag1135
ag1159
ag1207
ag1095
ag1063
ag987
ag1175
ag1183
asba(iGraph
Graph
p1240
(dp1241
g4
(lp1242
(iGraph
Node
p1243
(dp1244
g8
(lp1245
(iGraph
Node
p1246
(dp1247
g8
(lp1248
(iGraph
Node
p1249
(dp1250
g8
(lp1251
(iGraph
Node
p1252
(dp1253
g8
(lp1254
(iGraph
Node
p1255
(dp1256
g8
(lp1257
(iGraph
Node
p1258
(dp1259
g8
(lp1260
g1255
a(iGraph
Node
p1261
(dp1262
g8
(lp1263
g1258
a(iGraph
Node
p1264
(dp1265
g8
(lp1266
g1255
a(iGraph
Node
p1267
(dp1268
g8
(lp1269
g1255
ag1264
a(iGraph
Node
p1270
(dp1271
g8
(lp1272
(iGraph
Node
p1273
(dp1274
g8
(lp1275
g1255
ag1270
ag1264
ag1258
ag1252
a(iGraph
Node
p1276
(dp1277
g8
(lp1278
(iGraph
Node
p1279
(dp1280
g8
(lp1281
g1276
ag1258
ag1243
ag1261
ag1255
a(iGraph
Node
p1282
(dp1283
g8
(lp1284
g1249
ag1279
ag1243
asg46
Nsg47
g48
sS'r'
I5
sg49
I00
sg50
Nsg51
I10
sbag1267
ag1252
asg46
Nsg47
g48
sS'r'
I5
sg49
I00
sg50
Nsg51
I8
sba(iGraph
Node
p1285
(dp1286
g8
(lp1287
g1276
ag1258
ag1246
ag1255
asg46
Nsg47
g48
sS'r'
I5
sg49
I00
sg50
Nsg51
I4
sbag1273
ag1261
ag1258
asg46
Nsg47
g48
sS'r'
I5
sg49
I00
sg50
Nsg51
I12
sbag1261
ag1249
asg46
Nsg47
g48
sS'r'
I5
sg49
I00
sg50
Nsg51
I2
sbag1246
ag1249
ag1267
ag1258
ag1261
asg46
Nsg47
g48
sS'r'
I5
sg49
I00
sg50
Nsg51
I3
sbag1258
ag1279
asg46
Nsg47
g48
sS'r'
I5
sg49
I00
sg50
Nsg51
I11
sbag1261
ag1273
ag1249
ag1246
ag1252
ag1243
asg46
Nsg47
g48
sS'r'
I5
sg49
I00
sg50
Nsg51
I1
sbag1279
ag1243
ag1270
ag1276
ag1273
ag1246
ag1249
asg46
Nsg47
g48
sS'r'
I5
sg49
I00
sg50
Nsg51
I13
sbag1279
ag1273
ag1246
ag1270
ag1267
ag1249
ag1285
ag1276
asg46
Nsg47
g48
sS'r'
I5
sg49
I00
sg50
Nsg51
I7
sbag1252
ag1249
ag1264
ag1267
ag1273
ag1243
ag1279
ag1285
asg46
Nsg47
g48
sS'r'
I5
sg49
I00
sg50
Nsg51
I9
sbag1249
ag1264
ag1273
ag1279
ag1243
asg46
Nsg47
g48
sS'r'
I5
sg49
I00
sg50
Nsg51
I6
sbag1255
ag1246
ag1282
ag1270
ag1264
ag1258
ag1273
ag1261
asg46
Nsg47
g48
sS'r'
I5
sg49
I00
sg50
Nsg51
I14
sbag1270
ag1243
ag1264
ag1258
ag1285
ag1261
asg46
Nsg47
g48
sS'r'
I5
sg49
I00
sg50
Nsg51
I5
sbag1279
ag1261
ag1255
ag1252
ag1264
ag1282
asg46
Nsg47
g48
sS'r'
I5
sg49
I00
sg50
Nsg51
I0
sbag1264
ag1273
ag1270
ag1285
ag1246
ag1252
ag1258
ag1279
ag1255
ag1282
ag1267
ag1276
ag1261
ag1249
asg58
I0
sg59
I0
sg60
Nsg61
I0
sg62
I15
sg63
I500
sg64
F0.104
sg65
(lp1288
(iGraph
Edge
p1289
(dp1290
g47
g48
sg69
NsS'L'
(lp1291
g1255
ag1258
asg71
(lp1292
(iGraph
Triangle
p1293
(dp1294
g75
(lp1295
g1255
ag1258
ag1273
asg77
(lp1296
g1289
a(iGraph
Edge
p1297
(dp1298
g47
g48
sg69
NsS'L'
(lp1299
g1255
ag1273
asg71
(lp1300
g1293
a(iGraph
Triangle
p1301
(dp1302
g75
(lp1303
g1255
ag1252
ag1273
asg77
(lp1304
(iGraph
Edge
p1305
(dp1306
g47
g48
sg69
NsS'L'
(lp1307
g1255
ag1252
asg71
(lp1308
(iGraph
Triangle
p1309
(dp1310
g75
(lp1311
g1255
ag1252
ag1243
asg77
(lp1312
g1305
a(iGraph
Edge
p1313
(dp1314
g47
g48
sg69
NsS'L'
(lp1315
g1243
ag1255
asg71
(lp1316
g1309
a(iGraph
Triangle
p1317
(dp1318
g75
(lp1319
g1264
ag1255
ag1243
asg77
(lp1320
(iGraph
Edge
p1321
(dp1322
g47
g48
sg69
NsS'L'
(lp1323
g1264
ag1255
asg71
(lp1324
(iGraph
Triangle
p1325
(dp1326
g75
(lp1327
g1255
ag1252
ag1264
asg77
(lp1328
g1305
ag1321
a(iGraph
Edge
p1329
(dp1330
g47
g48
sg69
NsS'L'
(lp1331
g1252
ag1264
asg71
(lp1332
g1325
a(iGraph
Triangle
p1333
(dp1334
g75
(lp1335
g1252
ag1249
ag1264
asg77
(lp1336
(iGraph
Edge
p1337
(dp1338
g47
g48
sg69
NsS'L'
(lp1339
g1252
ag1249
asg71
(lp1340
(iGraph
Triangle
p1341
(dp1342
g75
(lp1343
g1255
ag1252
ag1249
asg77
(lp1344
g1305
a(iGraph
Edge
p1345
(dp1346
g47
g48
sg69
NsS'L'
(lp1347
g1249
ag1255
asg71
(lp1348
(iGraph
Triangle
p1349
(dp1350
g75
(lp1351
g1255
ag1258
ag1249
asg77
(lp1352
g1289
ag1345
a(iGraph
Edge
p1353
(dp1354
g47
g48
sg69
NsS'L'
(lp1355
g1249
ag1258
asg71
(lp1356
g1349
a(iGraph
Triangle
p1357
(dp1358
g75
(lp1359
g1261
ag1258
ag1249
asg77
(lp1360
(iGraph
Edge
p1361
(dp1362
g47
g48
sg69
NsS'L'
(lp1363
g1261
ag1258
asg71
(lp1364
(iGraph
Triangle
p1365
(dp1366
g75
(lp1367
g1261
ag1258
ag1273
asg77
(lp1368
g1361
a(iGraph
Edge
p1369
(dp1370
g47
g48
sg69
NsS'L'
(lp1371
g1261
ag1273
asg71
(lp1372
g1365
a(iGraph
Triangle
p1373
(dp1374
g75
(lp1375
g1270
ag1273
ag1261
asg77
(lp1376
(iGraph
Edge
p1377
(dp1378
g47
g48
sg69
NsS'L'
(lp1379
g1270
ag1273
asg71
(lp1380
(iGraph
Triangle
p1381
(dp1382
g75
(lp1383
g1270
ag1273
ag1258
asg77
(lp1384
g1377
a(iGraph
Edge
p1385
(dp1386
g47
g48
sg69
NsS'L'
(lp1387
g1270
ag1258
asg71
(lp1388
(iGraph
Triangle
p1389
(dp1390
g75
(lp1391
g1261
ag1258
ag1270
asg77
(lp1392
g1361
a(iGraph
Edge
p1393
(dp1394
g47
g48
sg69
NsS'L'
(lp1395
g1261
ag1270
asg71
(lp1396
g1389
ag1373
a(iGraph
Triangle
p1397
(dp1398
g75
(lp1399
g1246
ag1270
ag1261
asg77
(lp1400
(iGraph
Edge
p1401
(dp1402
g47
g48
sg69
NsS'L'
(lp1403
g1246
ag1270
asg71
(lp1404
(iGraph
Triangle
p1405
(dp1406
g75
(lp1407
g1246
ag1249
ag1270
asg77
(lp1408
(iGraph
Edge
p1409
(dp1410
g47
g48
sg69
NsS'L'
(lp1411
g1246
ag1249
asg71
(lp1412
(iGraph
Triangle
p1413
(dp1414
g75
(lp1415
g1246
ag1249
ag1264
asg77
(lp1416
g1409
a(iGraph
Edge
p1417
(dp1418
g47
g48
sg69
NsS'L'
(lp1419
g1264
ag1246
asg71
(lp1420
g1413
a(iGraph
Triangle
p1421
(dp1422
g75
(lp1423
g1243
ag1246
ag1264
asg77
(lp1424
(iGraph
Edge
p1425
(dp1426
g47
g48
sg69
NsS'L'
(lp1427
g1243
ag1246
asg71
(lp1428
g1421
a(iGraph
Triangle
p1429
(dp1430
g75
(lp1431
g1243
ag1246
ag1261
asg77
(lp1432
g1425
a(iGraph
Edge
p1433
(dp1434
g47
g48
sg69
NsS'L'
(lp1435
g1243
ag1261
asg71
(lp1436
g1429
a(iGraph
Triangle
p1437
(dp1438
g75
(lp1439
g1264
ag1261
ag1243
asg77
(lp1440
(iGraph
Edge
p1441
(dp1442
g47
g48
sg69
NsS'L'
(lp1443
g1264
ag1261
asg71
(lp1444
g1437
a(iGraph
Triangle
p1445
(dp1446
g75
(lp1447
g1264
ag1261
ag1273
asg77
(lp1448
g1441
a(iGraph
Edge
p1449
(dp1450
g47
g48
sg69
NsS'L'
(lp1451
g1273
ag1264
asg71
(lp1452
(iGraph
Triangle
p1453
(dp1454
g75
(lp1455
g1264
ag1255
ag1273
asg77
(lp1456
g1321
ag1449
ag1297
asbag1445
a(iGraph
Triangle
p1457
(dp1458
g75
(lp1459
g1273
ag1264
ag1252
asg77
(lp1460
g1449
a(iGraph
Edge
p1461
(dp1462
g47
g48
sg69
NsS'L'
(lp1463
g1273
ag1252
asg71
(lp1464
g1301
a(iGraph
Triangle
p1465
(dp1466
g75
(lp1467
g1252
ag1249
ag1273
asg77
(lp1468
g1337
ag1461
a(iGraph
Edge
p1469
(dp1470
g47
g48
sg69
NsS'L'
(lp1471
g1273
ag1249
asg71
(lp1472
g1465
a(iGraph
Triangle
p1473
(dp1474
g75
(lp1475
g1249
ag1255
ag1273
asg77
(lp1476
g1345
ag1469
ag1297
asba(iGraph
Triangle
p1477
(dp1478
g75
(lp1479
g1270
ag1273
ag1249
asg77
(lp1480
g1377
a(iGraph
Edge
p1481
(dp1482
g47
g48
sg69
NsS'L'
(lp1483
g1270
ag1249
asg71
(lp1484
g1477
ag1405
a(iGraph
Triangle
p1485
(dp1486
g75
(lp1487
g1270
ag1249
ag1258
asg77
(lp1488
g1481
ag1385
ag1353
asba(iGraph
Triangle
p1489
(dp1490
g75
(lp1491
g1270
ag1249
ag1261
asg77
(lp1492
g1481
ag1393
a(iGraph
Edge
p1493
(dp1494
g47
g48
sg69
NsS'L'
(lp1495
g1249
ag1261
asg71
(lp1496
g1357
a(iGraph
Triangle
p1497
(dp1498
g75
(lp1499
g1246
ag1249
ag1261
asg77
(lp1500
g1409
a(iGraph
Edge
p1501
(dp1502
g47
g48
sg69
NsS'L'
(lp1503
g1246
ag1261
asg71
(lp1504
(iGraph
Triangle
p1505
(dp1506
g75
(lp1507
g1261
ag1258
ag1246
asg77
(lp1508
g1361
ag1501
a(iGraph
Edge
p1509
(dp1510
g47
g48
sg69
NsS'L'
(lp1511
g1258
ag1246
asg71
(lp1512
g1505
a(iGraph
Triangle
p1513
(dp1514
g75
(lp1515
g1246
ag1249
ag1258
asg77
(lp1516
g1409
ag1509
ag1353
asba(iGraph
Triangle
p1517
(dp1518
g75
(lp1519
g1246
ag1270
ag1258
asg77
(lp1520
g1401
ag1509
ag1385
asba(iGraph
Triangle
p1521
(dp1522
g75
(lp1523
g1258
ag1246
ag1285
asg77
(lp1524
g1509
a(iGraph
Edge
p1525
(dp1526
g47
g48
sg69
NsS'L'
(lp1527
g1258
ag1285
asg71
(lp1528
(iGraph
Triangle
p1529
(dp1530
g75
(lp1531
g1255
ag1258
ag1285
asg77
(lp1532
g1289
a(iGraph
Edge
p1533
(dp1534
g47
g48
sg69
NsS'L'
(lp1535
g1285
ag1255
asg71
(lp1536
g1529
asg211
I1
sbag1525
asba(iGraph
Triangle
p1537
(dp1538
g75
(lp1539
g1285
ag1276
ag1258
asg77
(lp1540
(iGraph
Edge
p1541
(dp1542
g47
g48
sg69
NsS'L'
(lp1543
g1285
ag1276
asg71
(lp1544
g1537
asg211
I1
sbag1525
a(iGraph
Edge
p1545
(dp1546
g47
g48
sg69
NsS'L'
(lp1547
g1258
ag1276
asg71
(lp1548
(iGraph
Triangle
p1549
(dp1550
g75
(lp1551
g1261
ag1258
ag1276
asg77
(lp1552
g1361
a(iGraph
Edge
p1553
(dp1554
g47
g48
sg69
NsS'L'
(lp1555
g1276
ag1261
asg71
(lp1556
g1549
a(iGraph
Triangle
p1557
(dp1558
g75
(lp1559
g1276
ag1279
ag1261
asg77
(lp1560
(iGraph
Edge
p1561
(dp1562
g47
g48
sg69
NsS'L'
(lp1563
g1276
ag1279
asg71
(lp1564
(iGraph
Triangle
p1565
(dp1566
g75
(lp1567
g1276
ag1279
ag1258
asg77
(lp1568
g1561
ag1545
a(iGraph
Edge
p1569
(dp1570
g47
g48
sg69
NsS'L'
(lp1571
g1258
ag1279
asg71
(lp1572
(iGraph
Triangle
p1573
(dp1574
g75
(lp1575
g1255
ag1258
ag1279
asg77
(lp1576
g1289
a(iGraph
Edge
p1577
(dp1578
g47
g48
sg69
NsS'L'
(lp1579
g1255
ag1279
asg71
(lp1580
g1573
a(iGraph
Triangle
p1581
(dp1582
g75
(lp1583
g1255
ag1252
ag1279
asg77
(lp1584
g1305
ag1577
a(iGraph
Edge
p1585
(dp1586
g47
g48
sg69
NsS'L'
(lp1587
g1252
ag1279
asg71
(lp1588
g1581
a(iGraph
Triangle
p1589
(dp1590
g75
(lp1591
g1243
ag1279
ag1252
asg77
(lp1592
(iGraph
Edge
p1593
(dp1594
g47
g48
sg69
NsS'L'
(lp1595
g1243
ag1279
asg71
(lp1596
g1589
a(iGraph
Triangle
p1597
(dp1598
g75
(lp1599
g1243
ag1279
ag1255
asg77
(lp1600
g1593
ag1313
ag1577
asba(iGraph
Triangle
p1601
(dp1602
g75
(lp1603
g1243
ag1279
ag1282
asg77
(lp1604
g1593
a(iGraph
Edge
p1605
(dp1606
g47
g48
sg69
NsS'L'
(lp1607
g1243
ag1282
asg71
(lp1608
g1601
asg211
I1
sba(iGraph
Edge
p1609
(dp1610
g47
g48
sg69
NsS'L'
(lp1611
g1279
ag1282
asg71
(lp1612
g1601
asg211
I1
sbasba(iGraph
Triangle
p1613
(dp1614
g75
(lp1615
g1243
ag1279
ag1261
asg77
(lp1616
g1593
ag1433
a(iGraph
Edge
p1617
(dp1618
g47
g48
sg69
NsS'L'
(lp1619
g1261
ag1279
asg71
(lp1620
(iGraph
Triangle
p1621
(dp1622
g75
(lp1623
g1261
ag1258
ag1279
asg77
(lp1624
g1361
ag1617
ag1569
asbag1557
ag1613
asg211
I1
sbasbasg211
I1
sba(iGraph
Edge
p1625
(dp1626
g47
g48
sg69
NsS'L'
(lp1627
g1243
ag1252
asg71
(lp1628
g1309
ag1589
a(iGraph
Triangle
p1629
(dp1630
g75
(lp1631
g1252
ag1264
ag1243
asg77
(lp1632
g1329
ag1625
a(iGraph
Edge
p1633
(dp1634
g47
g48
sg69
NsS'L'
(lp1635
g1243
ag1264
asg71
(lp1636
g1317
ag1421
ag1437
ag1629
asg211
I1
sbasbasg211
I1
sbag1585
asbasg211
I1
sbasba(iGraph
Triangle
p1637
(dp1638
g75
(lp1639
g1267
ag1255
ag1279
asg77
(lp1640
(iGraph
Edge
p1641
(dp1642
g47
g48
sg69
NsS'L'
(lp1643
g1267
ag1255
asg71
(lp1644
(iGraph
Triangle
p1645
(dp1646
g75
(lp1647
g1255
ag1258
ag1267
asg77
(lp1648
g1289
ag1641
a(iGraph
Edge
p1649
(dp1650
g47
g48
sg69
NsS'L'
(lp1651
g1258
ag1267
asg71
(lp1652
g1645
a(iGraph
Triangle
p1653
(dp1654
g75
(lp1655
g1258
ag1279
ag1267
asg77
(lp1656
g1569
ag1649
a(iGraph
Edge
p1657
(dp1658
g47
g48
sg69
NsS'L'
(lp1659
g1267
ag1279
asg71
(lp1660
g1637
ag1653
asg211
I1
sbasba(iGraph
Triangle
p1661
(dp1662
g75
(lp1663
g1270
ag1267
ag1258
asg77
(lp1664
(iGraph
Edge
p1665
(dp1666
g47
g48
sg69
NsS'L'
(lp1667
g1270
ag1267
asg71
(lp1668
g1661
asg211
I1
sbag1385
ag1649
asbasg211
I1
sbasba(iGraph
Triangle
p1669
(dp1670
g75
(lp1671
g1264
ag1255
ag1267
asg77
(lp1672
g1321
a(iGraph
Edge
p1673
(dp1674
g47
g48
sg69
NsS'L'
(lp1675
g1264
ag1267
asg71
(lp1676
g1669
asg211
I1
sbag1641
asbag1637
asg211
I1
sbag1657
ag1577
asbag1597
asg211
I1
sbag1569
asbag1621
ag1565
ag1653
asg211
I1
sbasbag1557
asg211
I1
sbag1553
ag1617
asba(iGraph
Triangle
p1677
(dp1678
g75
(lp1679
g1273
ag1276
ag1261
asg77
(lp1680
(iGraph
Edge
p1681
(dp1682
g47
g48
sg69
NsS'L'
(lp1683
g1273
ag1276
asg71
(lp1684
(iGraph
Triangle
p1685
(dp1686
g75
(lp1687
g1258
ag1273
ag1276
asg77
(lp1688
(iGraph
Edge
p1689
(dp1690
g47
g48
sg69
NsS'L'
(lp1691
g1258
ag1273
asg71
(lp1692
g1293
ag1365
ag1381
ag1685
a(iGraph
Triangle
p1693
(dp1694
g75
(lp1695
g1258
ag1273
ag1249
asg77
(lp1696
g1689
ag1353
ag1469
asbasg211
I1
sbag1545
ag1681
asbag1677
asg211
I1
sbag1369
ag1553
asbasg211
I1
sbag1545
asbag1565
ag1537
ag1685
asg211
I1
sbasbag1521
asg211
I1
sba(iGraph
Edge
p1697
(dp1698
g47
g48
sg69
NsS'L'
(lp1699
g1285
ag1246
asg71
(lp1700
g1521
asg211
I1
sbasbasg211
I1
sbasbag1497
ag1397
ag1429
a(iGraph
Triangle
p1701
(dp1702
g75
(lp1703
g1264
ag1261
ag1246
asg77
(lp1704
g1441
ag1417
ag1501
asbasg211
I1
sbag1493
asba(iGraph
Triangle
p1705
(dp1706
g75
(lp1707
g1264
ag1261
ag1249
asg77
(lp1708
g1441
a(iGraph
Edge
p1709
(dp1710
g47
g48
sg69
NsS'L'
(lp1711
g1264
ag1249
asg71
(lp1712
g1333
a(iGraph
Triangle
p1713
(dp1714
g75
(lp1715
g1249
ag1255
ag1264
asg77
(lp1716
g1345
ag1709
ag1321
asbag1413
ag1705
a(iGraph
Triangle
p1717
(dp1718
g75
(lp1719
g1273
ag1264
ag1249
asg77
(lp1720
g1449
ag1469
ag1709
asbasg211
I1
sbag1493
asbag1489
a(iGraph
Triangle
p1721
(dp1722
g75
(lp1723
g1261
ag1273
ag1249
asg77
(lp1724
g1369
ag1493
ag1469
asbasg211
I1
sbasbasg211
I1
sbag1469
asbag1717
ag1693
ag1721
asg211
I1
sbasbag1457
asg211
I1
sbag1329
asbag1717
asg211
I1
sbag1369
asbag1701
ag1705
asg211
I1
sbag1633
ag1433
asbag1613
asg211
I1
sbag1501
asbasg211
I1
sbag1633
ag1417
asbag1701
asg211
I1
sbag1709
asbag1405
ag1513
ag1497
asg211
I1
sbag1401
ag1481
asbag1517
ag1397
asg211
I1
sbag1501
ag1393
asbag1489
asg211
I1
sbag1385
asbag1381
ag1517
ag1485
ag1661
asg211
I1
sbag1689
asbag1373
ag1477
asg211
I1
sbag1393
ag1369
asbag1445
ag1677
ag1721
asg211
I1
sbag1689
asbag1389
ag1505
ag1621
ag1549
ag1357
asg211
I1
sbag1493
ag1353
asbag1513
ag1485
ag1693
asg211
I1
sbasbag1341
ag1713
ag1473
asg211
I1
sbag1337
asbag1333
ag1465
asg211
I1
sbag1329
ag1709
asbag1457
ag1629
asg211
I1
sbasbag1713
ag1317
ag1453
ag1669
asg211
I1
sbag1633
ag1313
asbag1597
asg211
I1
sbag1625
asbag1325
ag1301
ag1581
ag1341
asg211
I1
sbag1297
ag1461
asbag1473
ag1453
asg211
I1
sbag1689
asbag1529
ag1573
ag1645
ag1349
asg211
I1
sbag1361
ag1561
ag1305
ag1337
ag1345
ag1541
ag1321
ag1641
ag1297
ag1377
ag1409
ag1401
a(iGraph
Edge
p1725
(dp1726
g47
g48
sg69
NsS'L'
(lp1727
g1249
ag1282
asg71
(lp1728
sg211
I1
sbag1425
ag1673
ag1441
ag1449
ag1569
ag1481
ag1593
ag1709
ag1617
ag1417
ag1689
ag1665
ag1433
ag1329
ag1313
ag1577
ag1461
ag1509
ag1385
ag1649
ag1353
ag1681
ag1609
ag1525
ag1697
ag1657
ag1393
ag1553
ag1585
ag1625
ag1545
ag1633
ag1369
ag1501
ag1469
ag1493
ag1605
ag1533
asg564
F0.104
sg71
(lp1729
g1293
ag1529
ag1573
ag1645
ag1349
ag1365
ag1389
ag1505
ag1621
ag1549
ag1357
ag1565
ag1557
ag1309
ag1325
ag1301
ag1581
ag1341
ag1333
ag1465
ag1713
ag1473
ag1537
ag1317
ag1453
ag1669
ag1637
ag1381
ag1373
ag1477
ag1413
ag1405
ag1513
ag1497
ag1517
ag1397
ag1421
ag1429
ag1437
ag1445
ag1701
ag1705
ag1457
ag1717
ag1653
ag1485
ag1489
ag1589
ag1597
ag1601
ag1613
ag1685
ag1693
ag1661
ag1629
ag1521
ag1677
ag1721
asba.