(lp1
(iGraph
Graph
p2
(dp3
S'nodeList'
p4
(lp5
(iGraph
Node
p6
(dp7
S'neighbors'
p8
(lp9
(iGraph
Node
p10
(dp11
g8
(lp12
(iGraph
Node
p13
(dp14
g8
(lp15
g10
a(iGraph
Node
p16
(dp17
g8
(lp18
(iGraph
Node
p19
(dp20
g8
(lp21
(iGraph
Node
p22
(dp23
g8
(lp24
g19
a(iGraph
Node
p25
(dp26
g8
(lp27
(iGraph
Node
p28
(dp29
g8
(lp30
(iGraph
Node
p31
(dp32
g8
(lp33
g28
a(iGraph
Node
p34
(dp35
g8
(lp36
(iGraph
Node
p37
(dp38
g8
(lp39
g34
ag6
ag28
ag16
ag10
ag13
a(iGraph
Node
p40
(dp41
g8
(lp42
(iGraph
Node
p43
(dp44
g8
(lp45
g40
ag10
ag6
ag34
ag28
a(iGraph
Node
p46
(dp47
g8
(lp48
g28
ag25
ag6
ag16
ag43
ag22
asS'center'
p49
NsS'color'
p50
S'black'
p51
sS'r'
I5
sS'visited'
p52
I00
sS'circle'
p53
NsS'ID'
p54
I8
sbag37
ag16
asg49
Nsg50
g51
sS'r'
I5
sg52
I00
sg53
Nsg54
I10
sbag34
ag19
a(iGraph
Node
p55
(dp56
g8
(lp57
g6
ag40
ag19
ag25
asg49
Nsg50
g51
sS'r'
I5
sg52
I00
sg53
Nsg54
I6
sbag37
ag22
ag13
asg49
Nsg50
g51
sS'r'
I5
sg52
I00
sg53
Nsg54
I9
sbag43
ag25
asg49
Nsg50
g51
sS'r'
I5
sg52
I00
sg53
Nsg54
I14
sbag28
ag31
ag40
ag43
ag19
asg49
Nsg50
g51
sS'r'
I5
sg52
I00
sg53
Nsg54
I7
sbag25
ag19
ag22
ag10
ag6
ag16
asg49
Nsg50
g51
sS'r'
I5
sg52
I00
sg53
Nsg54
I12
sbag25
ag37
ag34
ag46
ag19
ag43
asg49
Nsg50
g51
sS'r'
I5
sg52
I00
sg53
Nsg54
I1
sbag6
ag22
ag31
ag46
ag16
ag19
ag55
ag37
asg49
Nsg50
g51
sS'r'
I5
sg52
I00
sg53
Nsg54
I4
sbag31
ag10
ag40
ag46
asg49
Nsg50
g51
sS'r'
I5
sg52
I00
sg53
Nsg54
I13
sbag16
ag10
ag28
ag31
ag40
ag34
ag55
ag25
asg49
Nsg50
g51
sS'r'
I5
sg52
I00
sg53
Nsg54
I11
sbag37
ag13
ag46
ag25
ag10
ag31
ag43
ag6
asg49
Nsg50
g51
sS'r'
I5
sg52
I00
sg53
Nsg54
I3
sbag37
ag40
asg49
Nsg50
g51
sS'r'
I5
sg52
I00
sg53
Nsg54
I5
sbag6
ag19
ag37
ag43
ag22
ag31
ag16
asg49
Nsg50
g51
sS'r'
I5
sg52
I00
sg53
Nsg54
I2
sbag55
ag37
ag25
ag46
ag43
ag31
ag16
asg49
Nsg50
g51
sS'r'
I5
sg52
I00
sg53
Nsg54
I0
sbag28
ag10
ag16
ag25
ag13
ag55
ag34
ag46
ag40
ag43
ag19
ag31
ag22
ag37
asS'verbose'
p58
I0
sS'cCount'
p59
I0
sS'win'
p60
NsS'strat'
p61
I0
sS'nNodes'
p62
I15
sS'intervals'
p63
I5
sS'unit'
p64
F10.800000000000001
sS'testMessage'
p65
S'unchanged'
p66
sS'edgeList'
p67
(lp68
(iGraph
Edge
p69
(dp70
g50
g51
sS'line'
p71
NsS'L'
(lp72
g10
ag13
asS'triangles'
p73
(lp74
(iGraph
Triangle
p75
(dp76
S'nodes'
p77
(lp78
g10
ag13
ag16
asS'edges'
p79
(lp80
g69
a(iGraph
Edge
p81
(dp82
g50
g51
sg71
NsS'L'
(lp83
g10
ag16
asg73
(lp84
g75
a(iGraph
Triangle
p85
(dp86
g77
(lp87
g10
ag6
ag16
asg79
(lp88
(iGraph
Edge
p89
(dp90
g50
g51
sg71
NsS'L'
(lp91
g10
ag6
asg73
(lp92
g85
a(iGraph
Triangle
p93
(dp94
g77
(lp95
g10
ag6
ag43
asg79
(lp96
g89
a(iGraph
Edge
p97
(dp98
g50
g51
sg71
NsS'L'
(lp99
g43
ag10
asg73
(lp100
g93
a(iGraph
Triangle
p101
(dp102
g77
(lp103
g10
ag37
ag43
asg79
(lp104
(iGraph
Edge
p105
(dp106
g50
g51
sg71
NsS'L'
(lp107
g10
ag37
asg73
(lp108
(iGraph
Triangle
p109
(dp110
g77
(lp111
g10
ag13
ag37
asg79
(lp112
g69
ag105
a(iGraph
Edge
p113
(dp114
g50
g51
sg71
NsS'L'
(lp115
g13
ag37
asg73
(lp116
g109
a(iGraph
Triangle
p117
(dp118
g77
(lp119
g16
ag37
ag13
asg79
(lp120
(iGraph
Edge
p121
(dp122
g50
g51
sg71
NsS'L'
(lp123
g16
ag37
asg73
(lp124
(iGraph
Triangle
p125
(dp126
g77
(lp127
g37
ag6
ag16
asg79
(lp128
(iGraph
Edge
p129
(dp130
g50
g51
sg71
NsS'L'
(lp131
g37
ag6
asg73
(lp132
(iGraph
Triangle
p133
(dp134
g77
(lp135
g10
ag6
ag37
asg79
(lp136
g89
ag105
ag129
asbag125
a(iGraph
Triangle
p137
(dp138
g77
(lp139
g37
ag6
ag25
asg79
(lp140
g129
a(iGraph
Edge
p141
(dp142
g50
g51
sg71
NsS'L'
(lp143
g37
ag25
asg73
(lp144
(iGraph
Triangle
p145
(dp146
g77
(lp147
g28
ag25
ag37
asg79
(lp148
(iGraph
Edge
p149
(dp150
g50
g51
sg71
NsS'L'
(lp151
g28
ag25
asg73
(lp152
(iGraph
Triangle
p153
(dp154
g77
(lp155
g28
ag31
ag25
asg79
(lp156
(iGraph
Edge
p157
(dp158
g50
g51
sg71
NsS'L'
(lp159
g28
ag31
asg73
(lp160
g153
a(iGraph
Triangle
p161
(dp162
g77
(lp163
g28
ag31
ag34
asg79
(lp164
g157
a(iGraph
Edge
p165
(dp166
g50
g51
sg71
NsS'L'
(lp167
g28
ag34
asg73
(lp168
(iGraph
Triangle
p169
(dp170
g77
(lp171
g37
ag34
ag28
asg79
(lp172
(iGraph
Edge
p173
(dp174
g50
g51
sg71
NsS'L'
(lp175
g37
ag34
asg73
(lp176
g169
a(iGraph
Triangle
p177
(dp178
g77
(lp179
g37
ag34
ag40
asg79
(lp180
g173
a(iGraph
Edge
p181
(dp182
g50
g51
sg71
NsS'L'
(lp183
g37
ag40
asg73
(lp184
(iGraph
Triangle
p185
(dp186
g77
(lp187
g40
ag43
ag37
asg79
(lp188
(iGraph
Edge
p189
(dp190
g50
g51
sg71
NsS'L'
(lp191
g40
ag43
asg73
(lp192
(iGraph
Triangle
p193
(dp194
g77
(lp195
g40
ag43
ag34
asg79
(lp196
g189
a(iGraph
Edge
p197
(dp198
g50
g51
sg71
NsS'L'
(lp199
g40
ag34
asg73
(lp200
g193
ag177
a(iGraph
Triangle
p201
(dp202
g77
(lp203
g40
ag34
ag19
asg79
(lp204
g197
a(iGraph
Edge
p205
(dp206
g50
g51
sg71
NsS'L'
(lp207
g19
ag40
asg73
(lp208
(iGraph
Triangle
p209
(dp210
g77
(lp211
g19
ag22
ag40
asg79
(lp212
(iGraph
Edge
p213
(dp214
g50
g51
sg71
NsS'L'
(lp215
g19
ag22
asg73
(lp216
(iGraph
Triangle
p217
(dp218
g77
(lp219
g19
ag22
ag10
asg79
(lp220
g213
a(iGraph
Edge
p221
(dp222
g50
g51
sg71
NsS'L'
(lp223
g19
ag10
asg73
(lp224
g217
a(iGraph
Triangle
p225
(dp226
g77
(lp227
g19
ag16
ag10
asg79
(lp228
(iGraph
Edge
p229
(dp230
g50
g51
sg71
NsS'L'
(lp231
g19
ag16
asg73
(lp232
g225
a(iGraph
Triangle
p233
(dp234
g77
(lp235
g19
ag16
ag25
asg79
(lp236
g229
a(iGraph
Edge
p237
(dp238
g50
g51
sg71
NsS'L'
(lp239
g19
ag25
asg73
(lp240
(iGraph
Triangle
p241
(dp242
g77
(lp243
g19
ag22
ag25
asg79
(lp244
g213
ag237
a(iGraph
Edge
p245
(dp246
g50
g51
sg71
NsS'L'
(lp247
g25
ag22
asg73
(lp248
g241
a(iGraph
Triangle
p249
(dp250
g77
(lp251
g25
ag22
ag46
asg79
(lp252
g245
a(iGraph
Edge
p253
(dp254
g50
g51
sg71
NsS'L'
(lp255
g46
ag25
asg73
(lp256
(iGraph
Triangle
p257
(dp258
g77
(lp259
g28
ag25
ag46
asg79
(lp260
g149
a(iGraph
Edge
p261
(dp262
g50
g51
sg71
NsS'L'
(lp263
g46
ag28
asg73
(lp264
g257
a(iGraph
Triangle
p265
(dp266
g77
(lp267
g46
ag28
ag43
asg79
(lp268
g261
a(iGraph
Edge
p269
(dp270
g50
g51
sg71
NsS'L'
(lp271
g43
ag46
asg73
(lp272
g265
a(iGraph
Triangle
p273
(dp274
g77
(lp275
g6
ag46
ag43
asg79
(lp276
(iGraph
Edge
p277
(dp278
g50
g51
sg71
NsS'L'
(lp279
g6
ag46
asg73
(lp280
(iGraph
Triangle
p281
(dp282
g77
(lp283
g6
ag25
ag46
asg79
(lp284
(iGraph
Edge
p285
(dp286
g50
g51
sg71
NsS'L'
(lp287
g6
ag25
asg73
(lp288
(iGraph
Triangle
p289
(dp290
g77
(lp291
g55
ag6
ag25
asg79
(lp292
(iGraph
Edge
p293
(dp294
g50
g51
sg71
NsS'L'
(lp295
g55
ag6
asg73
(lp296
g289
asS'notColored'
p297
I1
sba(iGraph
Edge
p298
(dp299
g50
g51
sg71
NsS'L'
(lp300
g25
ag55
asg73
(lp301
g289
a(iGraph
Triangle
p302
(dp303
g77
(lp304
g55
ag19
ag25
asg79
(lp305
(iGraph
Edge
p306
(dp307
g50
g51
sg71
NsS'L'
(lp308
g55
ag19
asg73
(lp309
(iGraph
Triangle
p310
(dp311
g77
(lp312
g19
ag40
ag55
asg79
(lp313
g205
ag306
a(iGraph
Edge
p314
(dp315
g50
g51
sg71
NsS'L'
(lp316
g55
ag40
asg73
(lp317
g310
asg297
I1
sbasbag302
asg297
I1
sbag298
ag237
asbasg297
I1
sbag285
asbag137
a(iGraph
Triangle
p318
(dp319
g77
(lp320
g6
ag25
ag16
asg79
(lp321
g285
a(iGraph
Edge
p322
(dp323
g50
g51
sg71
NsS'L'
(lp324
g6
ag16
asg73
(lp325
g85
ag125
ag318
a(iGraph
Triangle
p326
(dp327
g77
(lp328
g6
ag46
ag16
asg79
(lp329
g277
ag322
a(iGraph
Edge
p330
(dp331
g50
g51
sg71
NsS'L'
(lp332
g16
ag46
asg73
(lp333
(iGraph
Triangle
p334
(dp335
g77
(lp336
g46
ag25
ag16
asg79
(lp337
g253
ag330
a(iGraph
Edge
p338
(dp339
g50
g51
sg71
NsS'L'
(lp340
g16
ag25
asg73
(lp341
g233
a(iGraph
Triangle
p342
(dp343
g77
(lp344
g16
ag37
ag25
asg79
(lp345
g121
ag338
ag141
asbag318
a(iGraph
Triangle
p346
(dp347
g77
(lp348
g25
ag31
ag16
asg79
(lp349
(iGraph
Edge
p350
(dp351
g50
g51
sg71
NsS'L'
(lp352
g25
ag31
asg73
(lp353
g153
a(iGraph
Triangle
p354
(dp355
g77
(lp356
g6
ag25
ag31
asg79
(lp357
g285
a(iGraph
Edge
p358
(dp359
g50
g51
sg71
NsS'L'
(lp360
g6
ag31
asg73
(lp361
(iGraph
Triangle
p362
(dp363
g77
(lp364
g10
ag6
ag31
asg79
(lp365
g89
a(iGraph
Edge
p366
(dp367
g50
g51
sg71
NsS'L'
(lp368
g31
ag10
asg73
(lp369
g362
a(iGraph
Triangle
p370
(dp371
g77
(lp372
g19
ag10
ag31
asg79
(lp373
g221
a(iGraph
Edge
p374
(dp375
g50
g51
sg71
NsS'L'
(lp376
g19
ag31
asg73
(lp377
(iGraph
Triangle
p378
(dp379
g77
(lp380
g19
ag22
ag31
asg79
(lp381
g213
ag374
a(iGraph
Edge
p382
(dp383
g50
g51
sg71
NsS'L'
(lp384
g31
ag22
asg73
(lp385
g378
a(iGraph
Triangle
p386
(dp387
g77
(lp388
g25
ag22
ag31
asg79
(lp389
g245
ag350
ag382
asba(iGraph
Triangle
p390
(dp391
g77
(lp392
g31
ag22
ag10
asg79
(lp393
g382
ag366
a(iGraph
Edge
p394
(dp395
g50
g51
sg71
NsS'L'
(lp396
g22
ag10
asg73
(lp397
g217
ag390
asg297
I1
sbasbasg297
I1
sbasba(iGraph
Triangle
p398
(dp399
g77
(lp400
g28
ag31
ag19
asg79
(lp401
g157
a(iGraph
Edge
p402
(dp403
g50
g51
sg71
NsS'L'
(lp404
g28
ag19
asg73
(lp405
g398
a(iGraph
Triangle
p406
(dp407
g77
(lp408
g28
ag25
ag19
asg79
(lp409
g149
ag402
ag237
asba(iGraph
Triangle
p410
(dp411
g77
(lp412
g28
ag34
ag19
asg79
(lp413
g165
ag402
a(iGraph
Edge
p414
(dp415
g50
g51
sg71
NsS'L'
(lp416
g19
ag34
asg73
(lp417
g410
a(iGraph
Triangle
p418
(dp419
g77
(lp420
g34
ag31
ag19
asg79
(lp421
(iGraph
Edge
p422
(dp423
g50
g51
sg71
NsS'L'
(lp424
g34
ag31
asg73
(lp425
g161
ag418
asg297
I1
sbag414
ag374
asbag201
asg297
I1
sbasbasg297
I1
sbag374
asba(iGraph
Triangle
p426
(dp427
g77
(lp428
g19
ag16
ag31
asg79
(lp429
g229
ag374
a(iGraph
Edge
p430
(dp431
g50
g51
sg71
NsS'L'
(lp432
g16
ag31
asg73
(lp433
g426
ag346
a(iGraph
Triangle
p434
(dp435
g77
(lp436
g31
ag10
ag16
asg79
(lp437
g366
ag430
ag81
asba(iGraph
Triangle
p438
(dp439
g77
(lp440
g6
ag31
ag16
asg79
(lp441
g358
ag322
ag430
asbasg297
I1
sbasbag370
ag418
a(iGraph
Triangle
p442
(dp443
g77
(lp444
g25
ag31
ag19
asg79
(lp445
g350
ag237
ag374
asbasg297
I1
sbag366
asbag390
ag434
asg297
I1
sbag358
asbag354
ag438
asg297
I1
sbag350
asbag386
ag346
ag442
asg297
I1
sbag338
ag430
asbag334
asg297
I1
sbasbag326
a(iGraph
Triangle
p446
(dp447
g77
(lp448
g16
ag46
ag43
asg79
(lp449
g330
a(iGraph
Edge
p450
(dp451
g50
g51
sg71
NsS'L'
(lp452
g43
ag16
asg73
(lp453
(iGraph
Triangle
p454
(dp455
g77
(lp456
g16
ag37
ag43
asg79
(lp457
g121
ag450
a(iGraph
Edge
p458
(dp459
g50
g51
sg71
NsS'L'
(lp460
g43
ag37
asg73
(lp461
g185
a(iGraph
Triangle
p462
(dp463
g77
(lp464
g37
ag34
ag43
asg79
(lp465
g173
ag458
a(iGraph
Edge
p466
(dp467
g50
g51
sg71
NsS'L'
(lp468
g34
ag43
asg73
(lp469
g193
ag462
a(iGraph
Triangle
p470
(dp471
g77
(lp472
g28
ag34
ag43
asg79
(lp473
g165
a(iGraph
Edge
p474
(dp475
g50
g51
sg71
NsS'L'
(lp476
g43
ag28
asg73
(lp477
(iGraph
Triangle
p478
(dp479
g77
(lp480
g28
ag37
ag43
asg79
(lp481
(iGraph
Edge
p482
(dp483
g50
g51
sg71
NsS'L'
(lp484
g28
ag37
asg73
(lp485
g169
ag145
ag478
asg297
I1
sbag474
ag458
asbag470
ag265
asg297
I1
sbag466
asbasg297
I1
sbasba(iGraph
Triangle
p486
(dp487
g77
(lp488
g37
ag6
ag43
asg79
(lp489
g129
ag458
a(iGraph
Edge
p490
(dp491
g50
g51
sg71
NsS'L'
(lp492
g6
ag43
asg73
(lp493
g93
ag486
ag273
a(iGraph
Triangle
p494
(dp495
g77
(lp496
g6
ag43
ag16
asg79
(lp497
g490
ag322
ag450
asbasg297
I1
sbasbag478
ag454
ag101
asg297
I1
sbasbag446
a(iGraph
Triangle
p498
(dp499
g77
(lp500
g43
ag10
ag16
asg79
(lp501
g97
ag450
ag81
asbag494
asg297
I1
sbag269
asbasg297
I1
sbasbag494
ag438
asg297
I1
sbag338
asbag281
ag354
asg297
I1
sbag277
ag253
asbag326
ag273
asg297
I1
sbag490
ag269
asbag446
asg297
I1
sbag474
asbasg297
I1
sbag253
asbag281
ag249
ag334
asg297
I1
sba(iGraph
Edge
p502
(dp503
g50
g51
sg71
NsS'L'
(lp504
g22
ag46
asg73
(lp505
g249
asg297
I1
sbasbag386
asg297
I1
sbasbag406
ag233
ag442
ag302
asg297
I1
sbag338
asbag426
asg297
I1
sbag221
ag81
asbag370
asg297
I1
sbag394
asbag241
ag209
ag378
asg297
I1
sbag205
a(iGraph
Edge
p506
(dp507
g50
g51
sg71
NsS'L'
(lp508
g22
ag40
asg73
(lp509
g209
asg297
I1
sbasbag201
ag310
asg297
I1
sbag414
asbasg297
I1
sbag466
asbag185
asg297
I1
sbag181
ag458
asbag177
a(iGraph
Triangle
p510
(dp511
g77
(lp512
g13
ag37
ag40
asg79
(lp513
g113
a(iGraph
Edge
p514
(dp515
g50
g51
sg71
NsS'L'
(lp516
g13
ag40
asg73
(lp517
g510
asg297
I1
sbag181
asbasg297
I1
sbag197
asbag462
asg297
I1
sbag482
ag165
asbag161
ag470
ag410
asg297
I1
sbag422
asbag398
asg297
I1
sbag149
ag350
asbag257
ag406
ag145
asg297
I1
sbag482
ag141
asbag137
ag342
asg297
I1
sbag285
asbag486
asg297
I1
sbag121
ag322
asba(iGraph
Triangle
p518
(dp519
g77
(lp520
g16
ag37
ag10
asg79
(lp521
g121
ag81
ag105
asbag342
ag117
ag454
asg297
I1
sba(iGraph
Edge
p522
(dp523
g50
g51
sg71
NsS'L'
(lp524
g16
ag13
asg73
(lp525
g75
ag117
asg297
I1
sbag113
asbag510
asg297
I1
sbasbag133
ag518
ag101
asg297
I1
sbag97
ag458
asbag498
asg297
I1
sbag490
asbag362
ag133
asg297
I1
sbag81
ag322
asbag225
ag518
ag498
ag434
asg297
I1
sbag522
asbag109
asg297
I1
sbag89
ag293
ag213
ag189
ag173
ag157
ag149
ag129
ag229
ag221
ag482
ag121
ag285
ag165
ag522
ag245
ag422
ag350
ag261
ag253
ag277
ag105
ag402
ag330
ag374
ag382
ag197
ag97
ag490
ag205
ag466
ag414
ag474
ag314
ag338
ag113
ag394
ag366
ag81
ag269
ag181
ag358
ag430
ag458
ag506
ag514
ag306
ag237
ag298
ag450
ag141
ag502
ag322
asS'check'
p526
F10.800000000000001
sg73
(lp527
g75
ag109
ag85
ag93
ag362
ag133
ag289
ag217
ag241
ag209
ag378
ag193
ag185
ag169
ag177
ag462
ag153
ag161
ag398
ag257
ag406
ag145
ag125
ag137
ag486
ag225
ag233
ag426
ag370
ag478
ag518
ag342
ag117
ag454
ag318
ag281
ag354
ag470
ag410
ag249
ag386
ag418
ag346
ag442
ag265
ag334
ag326
ag273
ag101
ag446
ag390
ag201
ag498
ag494
ag310
ag510
ag434
ag438
ag302
asba(iGraph
Graph
p528
(dp529
g4
(lp530
(iGraph
Node
p531
(dp532
g8
(lp533
(iGraph
Node
p534
(dp535
g8
(lp536
(iGraph
Node
p537
(dp538
g8
(lp539
(iGraph
Node
p540
(dp541
g8
(lp542
g537
a(iGraph
Node
p543
(dp544
g8
(lp545
(iGraph
Node
p546
(dp547
g8
(lp548
g543
a(iGraph
Node
p549
(dp550
g8
(lp551
g531
ag546
ag543
a(iGraph
Node
p552
(dp553
g8
(lp554
(iGraph
Node
p555
(dp556
g8
(lp557
g552
ag534
ag543
a(iGraph
Node
p558
(dp559
g8
(lp560
g543
a(iGraph
Node
p561
(dp562
g8
(lp563
g558
ag534
a(iGraph
Node
p564
(dp565
g8
(lp566
(iGraph
Node
p567
(dp568
g8
(lp569
g564
a(iGraph
Node
p570
(dp571
g8
(lp572
g567
ag537
ag552
ag546
a(iGraph
Node
p573
(dp574
g8
(lp575
g558
ag570
ag534
ag531
ag564
ag555
ag540
ag537
asg49
Nsg50
g51
sS'r'
I5
sg52
I00
sg53
Nsg54
I5
sbag549
ag564
ag540
ag543
ag561
ag534
ag555
ag558
asg49
Nsg50
g51
sS'r'
I5
sg52
I00
sg53
Nsg54
I7
sbag540
ag531
ag537
ag561
asg49
Nsg50
g51
sS'r'
I5
sg52
I00
sg53
Nsg54
I12
sbag534
ag570
ag573
ag561
ag555
ag549
ag540
asg49
Nsg50
g51
sS'r'
I5
sg52
I00
sg53
Nsg54
I6
sbag570
ag567
ag549
asg49
Nsg50
g51
sS'r'
I5
sg52
I00
sg53
Nsg54
I1
sbag573
ag537
ag531
ag540
ag552
ag555
ag546
ag534
ag570
asg49
Nsg50
g51
sS'r'
I5
sg52
I00
sg53
Nsg54
I4
sbag546
ag537
ag573
ag570
ag564
ag549
asg49
Nsg50
g51
sS'r'
I5
sg52
I00
sg53
Nsg54
I8
sbag543
ag570
ag537
ag531
ag540
ag558
ag549
ag534
asg49
Nsg50
g51
sS'r'
I5
sg52
I00
sg53
Nsg54
I2
sbag570
ag537
ag564
ag555
ag561
asg49
Nsg50
g51
sS'r'
I5
sg52
I00
sg53
Nsg54
I13
sbag540
ag570
ag537
ag555
ag534
ag558
ag531
asg49
Nsg50
g51
sS'r'
I5
sg52
I00
sg53
Nsg54
I14
sbag552
ag558
ag555
ag537
ag531
ag540
ag549
ag570
ag534
asg49
Nsg50
g51
sS'r'
I5
sg52
I00
sg53
Nsg54
I9
sbag567
ag546
ag552
ag558
ag570
ag534
ag573
ag564
asg49
Nsg50
g51
sS'r'
I5
sg52
I00
sg53
Nsg54
I3
sbag534
ag570
ag543
ag558
ag552
ag546
ag567
ag555
ag549
ag573
asg49
Nsg50
g51
sS'r'
I5
sg52
I00
sg53
Nsg54
I10
sbag555
ag531
ag564
ag561
ag573
ag546
ag540
ag558
ag570
ag552
ag543
asg49
Nsg50
g51
sS'r'
I5
sg52
I00
sg53
Nsg54
I11
sbag549
ag558
ag543
ag552
ag567
ag573
ag546
asg49
Nsg50
g51
sS'r'
I5
sg52
I00
sg53
Nsg54
I0
sbag561
ag552
ag540
ag558
ag573
ag564
ag570
ag555
ag543
ag537
ag534
ag567
ag549
ag546
asg58
I0
sg59
I0
sg60
Nsg61
I0
sg62
I15
sg63
I5
sg64
F14
sg65
g66
sg67
(lp576
(iGraph
Edge
p577
(dp578
g50
g51
sg71
NsS'L'
(lp579
g543
ag546
asg73
(lp580
(iGraph
Triangle
p581
(dp582
g77
(lp583
g543
ag546
ag531
asg79
(lp584
g577
a(iGraph
Edge
p585
(dp586
g50
g51
sg71
NsS'L'
(lp587
g543
ag531
asg73
(lp588
g581
a(iGraph
Triangle
p589
(dp590
g77
(lp591
g543
ag552
ag531
asg79
(lp592
(iGraph
Edge
p593
(dp594
g50
g51
sg71
NsS'L'
(lp595
g543
ag552
asg73
(lp596
(iGraph
Triangle
p597
(dp598
g77
(lp599
g552
ag555
ag543
asg79
(lp600
(iGraph
Edge
p601
(dp602
g50
g51
sg71
NsS'L'
(lp603
g552
ag555
asg73
(lp604
(iGraph
Triangle
p605
(dp606
g77
(lp607
g552
ag555
ag558
asg79
(lp608
g601
a(iGraph
Edge
p609
(dp610
g50
g51
sg71
NsS'L'
(lp611
g552
ag558
asg73
(lp612
g605
a(iGraph
Triangle
p613
(dp614
g77
(lp615
g543
ag552
ag558
asg79
(lp616
g593
a(iGraph
Edge
p617
(dp618
g50
g51
sg71
NsS'L'
(lp619
g558
ag543
asg73
(lp620
(iGraph
Triangle
p621
(dp622
g77
(lp623
g543
ag546
ag558
asg79
(lp624
g577
ag617
a(iGraph
Edge
p625
(dp626
g50
g51
sg71
NsS'L'
(lp627
g558
ag546
asg73
(lp628
g621
a(iGraph
Triangle
p629
(dp630
g77
(lp631
g558
ag537
ag546
asg79
(lp632
(iGraph
Edge
p633
(dp634
g50
g51
sg71
NsS'L'
(lp635
g558
ag537
asg73
(lp636
(iGraph
Triangle
p637
(dp638
g77
(lp639
g537
ag540
ag558
asg79
(lp640
(iGraph
Edge
p641
(dp642
g50
g51
sg71
NsS'L'
(lp643
g537
ag540
asg73
(lp644
(iGraph
Triangle
p645
(dp646
g77
(lp647
g537
ag540
ag552
asg79
(lp648
g641
a(iGraph
Edge
p649
(dp650
g50
g51
sg71
NsS'L'
(lp651
g552
ag537
asg73
(lp652
(iGraph
Triangle
p653
(dp654
g77
(lp655
g552
ag555
ag537
asg79
(lp656
g601
ag649
a(iGraph
Edge
p657
(dp658
g50
g51
sg71
NsS'L'
(lp659
g537
ag555
asg73
(lp660
g653
a(iGraph
Triangle
p661
(dp662
g77
(lp663
g534
ag537
ag555
asg79
(lp664
(iGraph
Edge
p665
(dp666
g50
g51
sg71
NsS'L'
(lp667
g534
ag537
asg73
(lp668
(iGraph
Triangle
p669
(dp670
g77
(lp671
g537
ag540
ag534
asg79
(lp672
g641
ag665
a(iGraph
Edge
p673
(dp674
g50
g51
sg71
NsS'L'
(lp675
g540
ag534
asg73
(lp676
g669
a(iGraph
Triangle
p677
(dp678
g77
(lp679
g540
ag543
ag534
asg79
(lp680
(iGraph
Edge
p681
(dp682
g50
g51
sg71
NsS'L'
(lp683
g540
ag543
asg73
(lp684
(iGraph
Triangle
p685
(dp686
g77
(lp687
g543
ag546
ag540
asg79
(lp688
g577
ag681
a(iGraph
Edge
p689
(dp690
g50
g51
sg71
NsS'L'
(lp691
g546
ag540
asg73
(lp692
g685
a(iGraph
Triangle
p693
(dp694
g77
(lp695
g537
ag540
ag546
asg79
(lp696
g641
a(iGraph
Edge
p697
(dp698
g50
g51
sg71
NsS'L'
(lp699
g546
ag537
asg73
(lp700
(iGraph
Triangle
p701
(dp702
g77
(lp703
g543
ag546
ag537
asg79
(lp704
g577
a(iGraph
Edge
p705
(dp706
g50
g51
sg71
NsS'L'
(lp707
g543
ag537
asg73
(lp708
g701
a(iGraph
Triangle
p709
(dp710
g77
(lp711
g543
ag552
ag537
asg79
(lp712
g593
ag705
ag649
asba(iGraph
Triangle
p713
(dp714
g77
(lp715
g537
ag540
ag543
asg79
(lp716
g641
ag705
ag681
asba(iGraph
Triangle
p717
(dp718
g77
(lp719
g534
ag537
ag543
asg79
(lp720
g665
a(iGraph
Edge
p721
(dp722
g50
g51
sg71
NsS'L'
(lp723
g543
ag534
asg73
(lp724
(iGraph
Triangle
p725
(dp726
g77
(lp727
g543
ag546
ag534
asg79
(lp728
g577
ag721
a(iGraph
Edge
p729
(dp730
g50
g51
sg71
NsS'L'
(lp731
g534
ag546
asg73
(lp732
g725
a(iGraph
Triangle
p733
(dp734
g77
(lp735
g534
ag537
ag546
asg79
(lp736
g665
ag729
ag697
asba(iGraph
Triangle
p737
(dp738
g77
(lp739
g555
ag534
ag546
asg79
(lp740
(iGraph
Edge
p741
(dp742
g50
g51
sg71
NsS'L'
(lp743
g555
ag534
asg73
(lp744
(iGraph
Triangle
p745
(dp746
g77
(lp747
g552
ag555
ag534
asg79
(lp748
g601
a(iGraph
Edge
p749
(dp750
g50
g51
sg71
NsS'L'
(lp751
g552
ag534
asg73
(lp752
g745
a(iGraph
Triangle
p753
(dp754
g77
(lp755
g543
ag552
ag534
asg79
(lp756
g593
ag721
ag749
asba(iGraph
Triangle
p757
(dp758
g77
(lp759
g534
ag537
ag552
asg79
(lp760
g665
ag749
ag649
asba(iGraph
Triangle
p761
(dp762
g77
(lp763
g531
ag534
ag552
asg79
(lp764
(iGraph
Edge
p765
(dp766
g50
g51
sg71
NsS'L'
(lp767
g531
ag534
asg73
(lp768
g761
a(iGraph
Triangle
p769
(dp770
g77
(lp771
g531
ag534
ag558
asg79
(lp772
g765
a(iGraph
Edge
p773
(dp774
g50
g51
sg71
NsS'L'
(lp775
g531
ag558
asg73
(lp776
(iGraph
Triangle
p777
(dp778
g77
(lp779
g558
ag543
ag531
asg79
(lp780
g617
ag773
ag585
asba(iGraph
Triangle
p781
(dp782
g77
(lp783
g573
ag558
ag531
asg79
(lp784
(iGraph
Edge
p785
(dp786
g50
g51
sg71
NsS'L'
(lp787
g573
ag558
asg73
(lp788
g781
a(iGraph
Triangle
p789
(dp790
g77
(lp791
g573
ag558
ag540
asg79
(lp792
g785
a(iGraph
Edge
p793
(dp794
g50
g51
sg71
NsS'L'
(lp795
g573
ag540
asg73
(lp796
(iGraph
Triangle
p797
(dp798
g77
(lp799
g537
ag540
ag573
asg79
(lp800
g641
a(iGraph
Edge
p801
(dp802
g50
g51
sg71
NsS'L'
(lp803
g573
ag537
asg73
(lp804
g797
a(iGraph
Triangle
p805
(dp806
g77
(lp807
g534
ag537
ag573
asg79
(lp808
g665
a(iGraph
Edge
p809
(dp810
g50
g51
sg71
NsS'L'
(lp811
g534
ag573
asg73
(lp812
g805
a(iGraph
Triangle
p813
(dp814
g77
(lp815
g555
ag534
ag573
asg79
(lp816
g741
a(iGraph
Edge
p817
(dp818
g50
g51
sg71
NsS'L'
(lp819
g573
ag555
asg73
(lp820
g813
a(iGraph
Triangle
p821
(dp822
g77
(lp823
g573
ag558
ag555
asg79
(lp824
g785
ag817
a(iGraph
Edge
p825
(dp826
g50
g51
sg71
NsS'L'
(lp827
g555
ag558
asg73
(lp828
g605
a(iGraph
Triangle
p829
(dp830
g77
(lp831
g558
ag543
ag555
asg79
(lp832
g617
ag825
a(iGraph
Edge
p833
(dp834
g50
g51
sg71
NsS'L'
(lp835
g543
ag555
asg73
(lp836
(iGraph
Triangle
p837
(dp838
g77
(lp839
g543
ag546
ag555
asg79
(lp840
g577
ag833
a(iGraph
Edge
p841
(dp842
g50
g51
sg71
NsS'L'
(lp843
g546
ag555
asg73
(lp844
g837
ag737
a(iGraph
Triangle
p845
(dp846
g77
(lp847
g549
ag546
ag555
asg79
(lp848
(iGraph
Edge
p849
(dp850
g50
g51
sg71
NsS'L'
(lp851
g549
ag546
asg73
(lp852
(iGraph
Triangle
p853
(dp854
g77
(lp855
g543
ag546
ag549
asg79
(lp856
g577
a(iGraph
Edge
p857
(dp858
g50
g51
sg71
NsS'L'
(lp859
g543
ag549
asg73
(lp860
g853
a(iGraph
Triangle
p861
(dp862
g77
(lp863
g543
ag552
ag549
asg79
(lp864
g593
ag857
a(iGraph
Edge
p865
(dp866
g50
g51
sg71
NsS'L'
(lp867
g552
ag549
asg73
(lp868
(iGraph
Triangle
p869
(dp870
g77
(lp871
g552
ag555
ag549
asg79
(lp872
g601
ag865
a(iGraph
Edge
p873
(dp874
g50
g51
sg71
NsS'L'
(lp875
g549
ag555
asg73
(lp876
g869
a(iGraph
Triangle
p877
(dp878
g77
(lp879
g543
ag555
ag549
asg79
(lp880
g833
ag857
ag873
asbag845
a(iGraph
Triangle
p881
(dp882
g77
(lp883
g549
ag570
ag555
asg79
(lp884
(iGraph
Edge
p885
(dp886
g50
g51
sg71
NsS'L'
(lp887
g549
ag570
asg73
(lp888
(iGraph
Triangle
p889
(dp890
g77
(lp891
g570
ag537
ag549
asg79
(lp892
(iGraph
Edge
p893
(dp894
g50
g51
sg71
NsS'L'
(lp895
g570
ag537
asg73
(lp896
(iGraph
Triangle
p897
(dp898
g77
(lp899
g537
ag540
ag570
asg79
(lp900
g641
ag893
a(iGraph
Edge
p901
(dp902
g50
g51
sg71
NsS'L'
(lp903
g570
ag540
asg73
(lp904
g897
a(iGraph
Triangle
p905
(dp906
g77
(lp907
g570
ag567
ag540
asg79
(lp908
(iGraph
Edge
p909
(dp910
g50
g51
sg71
NsS'L'
(lp911
g570
ag567
asg73
(lp912
(iGraph
Triangle
p913
(dp914
g77
(lp915
g564
ag567
ag570
asg79
(lp916
(iGraph
Edge
p917
(dp918
g50
g51
sg71
NsS'L'
(lp919
g564
ag567
asg73
(lp920
(iGraph
Triangle
p921
(dp922
g77
(lp923
g564
ag567
ag561
asg79
(lp924
g917
a(iGraph
Edge
p925
(dp926
g50
g51
sg71
NsS'L'
(lp927
g564
ag561
asg73
(lp928
g921
a(iGraph
Triangle
p929
(dp930
g77
(lp931
g564
ag534
ag561
asg79
(lp932
(iGraph
Edge
p933
(dp934
g50
g51
sg71
NsS'L'
(lp935
g564
ag534
asg73
(lp936
(iGraph
Triangle
p937
(dp938
g77
(lp939
g555
ag534
ag564
asg79
(lp940
g741
a(iGraph
Edge
p941
(dp942
g50
g51
sg71
NsS'L'
(lp943
g555
ag564
asg73
(lp944
g937
a(iGraph
Triangle
p945
(dp946
g77
(lp947
g570
ag564
ag555
asg79
(lp948
(iGraph
Edge
p949
(dp950
g50
g51
sg71
NsS'L'
(lp951
g570
ag564
asg73
(lp952
g913
a(iGraph
Triangle
p953
(dp954
g77
(lp955
g564
ag534
ag570
asg79
(lp956
g933
ag949
a(iGraph
Edge
p957
(dp958
g50
g51
sg71
NsS'L'
(lp959
g534
ag570
asg73
(lp960
(iGraph
Triangle
p961
(dp962
g77
(lp963
g534
ag537
ag570
asg79
(lp964
g665
ag957
ag893
asba(iGraph
Triangle
p965
(dp966
g77
(lp967
g555
ag534
ag570
asg79
(lp968
g741
a(iGraph
Edge
p969
(dp970
g50
g51
sg71
NsS'L'
(lp971
g555
ag570
asg73
(lp972
(iGraph
Triangle
p973
(dp974
g77
(lp975
g552
ag555
ag570
asg79
(lp976
g601
a(iGraph
Edge
p977
(dp978
g50
g51
sg71
NsS'L'
(lp979
g570
ag552
asg73
(lp980
g973
a(iGraph
Triangle
p981
(dp982
g77
(lp983
g543
ag552
ag570
asg79
(lp984
g593
a(iGraph
Edge
p985
(dp986
g50
g51
sg71
NsS'L'
(lp987
g570
ag543
asg73
(lp988
(iGraph
Triangle
p989
(dp990
g77
(lp991
g543
ag546
ag570
asg79
(lp992
g577
ag985
a(iGraph
Edge
p993
(dp994
g50
g51
sg71
NsS'L'
(lp995
g546
ag570
asg73
(lp996
g989
a(iGraph
Triangle
p997
(dp998
g77
(lp999
g570
ag537
ag546
asg79
(lp1000
g893
ag993
ag697
asba(iGraph
Triangle
p1001
(dp1002
g77
(lp1003
g549
ag546
ag570
asg79
(lp1004
g849
ag885
ag993
asba(iGraph
Triangle
p1005
(dp1006
g77
(lp1007
g546
ag540
ag570
asg79
(lp1008
g689
ag993
ag901
asba(iGraph
Triangle
p1009
(dp1010
g77
(lp1011
g546
ag570
ag558
asg79
(lp1012
g993
ag625
a(iGraph
Edge
p1013
(dp1014
g50
g51
sg71
NsS'L'
(lp1015
g570
ag558
asg73
(lp1016
(iGraph
Triangle
p1017
(dp1018
g77
(lp1019
g558
ag543
ag570
asg79
(lp1020
g617
ag1013
ag985
asba(iGraph
Triangle
p1021
(dp1022
g77
(lp1023
g561
ag558
ag570
asg79
(lp1024
(iGraph
Edge
p1025
(dp1026
g50
g51
sg71
NsS'L'
(lp1027
g561
ag558
asg73
(lp1028
g1021
a(iGraph
Triangle
p1029
(dp1030
g77
(lp1031
g561
ag558
ag534
asg79
(lp1032
g1025
a(iGraph
Edge
p1033
(dp1034
g50
g51
sg71
NsS'L'
(lp1035
g534
ag561
asg73
(lp1036
g1029
ag929
a(iGraph
Triangle
p1037
(dp1038
g77
(lp1039
g534
ag561
ag570
asg79
(lp1040
g1033
ag957
a(iGraph
Edge
p1041
(dp1042
g50
g51
sg71
NsS'L'
(lp1043
g570
ag561
asg73
(lp1044
(iGraph
Triangle
p1045
(dp1046
g77
(lp1047
g570
ag567
ag561
asg79
(lp1048
g909
ag1041
a(iGraph
Edge
p1049
(dp1050
g50
g51
sg71
NsS'L'
(lp1051
g567
ag561
asg73
(lp1052
g921
ag1045
asg297
I1
sbasbag1021
ag1037
a(iGraph
Triangle
p1053
(dp1054
g77
(lp1055
g549
ag570
ag561
asg79
(lp1056
g885
a(iGraph
Edge
p1057
(dp1058
g50
g51
sg71
NsS'L'
(lp1059
g549
ag561
asg73
(lp1060
g1053
a(iGraph
Triangle
p1061
(dp1062
g77
(lp1063
g564
ag561
ag549
asg79
(lp1064
g925
a(iGraph
Edge
p1065
(dp1066
g50
g51
sg71
NsS'L'
(lp1067
g564
ag549
asg73
(lp1068
(iGraph
Triangle
p1069
(dp1070
g77
(lp1071
g549
ag570
ag564
asg79
(lp1072
g885
ag1065
ag949
asbag1061
a(iGraph
Triangle
p1073
(dp1074
g77
(lp1075
g555
ag564
ag549
asg79
(lp1076
g941
ag873
ag1065
asbasg297
I1
sbag1057
asbasg297
I1
sbag1041
asba(iGraph
Triangle
p1077
(dp1078
g77
(lp1079
g570
ag564
ag561
asg79
(lp1080
g949
ag1041
ag925
asbasg297
I1
sbasbasg297
I1
sba(iGraph
Edge
p1081
(dp1082
g50
g51
sg71
NsS'L'
(lp1083
g534
ag558
asg73
(lp1084
(iGraph
Triangle
p1085
(dp1086
g77
(lp1087
g534
ag537
ag558
asg79
(lp1088
g665
ag1081
ag633
asba(iGraph
Triangle
p1089
(dp1090
g77
(lp1091
g558
ag543
ag534
asg79
(lp1092
g617
ag1081
ag721
asba(iGraph
Triangle
p1093
(dp1094
g77
(lp1095
g555
ag534
ag558
asg79
(lp1096
g741
ag825
ag1081
asbag1029
a(iGraph
Triangle
p1097
(dp1098
g77
(lp1099
g573
ag558
ag534
asg79
(lp1100
g785
ag809
ag1081
asbag769
a(iGraph
Triangle
p1101
(dp1102
g77
(lp1103
g558
ag540
ag534
asg79
(lp1104
(iGraph
Edge
p1105
(dp1106
g50
g51
sg71
NsS'L'
(lp1107
g558
ag540
asg73
(lp1108
g637
a(iGraph
Triangle
p1109
(dp1110
g77
(lp1111
g558
ag543
ag540
asg79
(lp1112
g617
ag1105
ag681
asbag789
a(iGraph
Triangle
p1113
(dp1114
g77
(lp1115
g546
ag540
ag558
asg79
(lp1116
g689
ag625
ag1105
asba(iGraph
Triangle
p1117
(dp1118
g77
(lp1119
g540
ag552
ag558
asg79
(lp1120
(iGraph
Edge
p1121
(dp1122
g50
g51
sg71
NsS'L'
(lp1123
g540
ag552
asg73
(lp1124
(iGraph
Triangle
p1125
(dp1126
g77
(lp1127
g543
ag552
ag540
asg79
(lp1128
g593
ag681
ag1121
asbag645
a(iGraph
Triangle
p1129
(dp1130
g77
(lp1131
g570
ag552
ag540
asg79
(lp1132
g977
ag901
ag1121
asbag1117
a(iGraph
Triangle
p1133
(dp1134
g77
(lp1135
g540
ag552
ag534
asg79
(lp1136
g1121
ag673
ag749
asbasg297
I1
sbag1105
ag609
asba(iGraph
Triangle
p1137
(dp1138
g77
(lp1139
g558
ag540
ag570
asg79
(lp1140
g1105
ag1013
ag901
asbag1101
asg297
I1
sbag1081
ag673
asba(iGraph
Triangle
p1141
(dp1142
g77
(lp1143
g552
ag558
ag534
asg79
(lp1144
g609
ag749
ag1081
asba(iGraph
Triangle
p1145
(dp1146
g77
(lp1147
g534
ag546
ag558
asg79
(lp1148
g729
ag1081
ag625
asba(iGraph
Triangle
p1149
(dp1150
g77
(lp1151
g534
ag558
ag570
asg79
(lp1152
g1081
ag957
ag1013
asbasg297
I1
sbasbasg297
I1
sbag1041
ag1013
asba(iGraph
Triangle
p1153
(dp1154
g77
(lp1155
g573
ag558
ag570
asg79
(lp1156
g785
a(iGraph
Edge
p1157
(dp1158
g50
g51
sg71
NsS'L'
(lp1159
g573
ag570
asg73
(lp1160
g1153
a(iGraph
Triangle
p1161
(dp1162
g77
(lp1163
g570
ag537
ag573
asg79
(lp1164
g893
ag1157
ag801
asba(iGraph
Triangle
p1165
(dp1166
g77
(lp1167
g573
ag570
ag540
asg79
(lp1168
g1157
ag793
ag901
asba(iGraph
Triangle
p1169
(dp1170
g77
(lp1171
g573
ag570
ag564
asg79
(lp1172
g1157
a(iGraph
Edge
p1173
(dp1174
g50
g51
sg71
NsS'L'
(lp1175
g564
ag573
asg73
(lp1176
(iGraph
Triangle
p1177
(dp1178
g77
(lp1179
g564
ag534
ag573
asg79
(lp1180
g933
ag1173
ag809
asbag1169
a(iGraph
Triangle
p1181
(dp1182
g77
(lp1183
g564
ag573
ag540
asg79
(lp1184
g1173
a(iGraph
Edge
p1185
(dp1186
g50
g51
sg71
NsS'L'
(lp1187
g540
ag564
asg73
(lp1188
(iGraph
Triangle
p1189
(dp1190
g77
(lp1191
g564
ag567
ag540
asg79
(lp1192
g917
ag1185
a(iGraph
Edge
p1193
(dp1194
g50
g51
sg71
NsS'L'
(lp1195
g540
ag567
asg73
(lp1196
g1189
a(iGraph
Triangle
p1197
(dp1198
g77
(lp1199
g537
ag540
ag567
asg79
(lp1200
g641
a(iGraph
Edge
p1201
(dp1202
g50
g51
sg71
NsS'L'
(lp1203
g537
ag567
asg73
(lp1204
g1197
a(iGraph
Triangle
p1205
(dp1206
g77
(lp1207
g570
ag567
ag537
asg79
(lp1208
g909
ag893
ag1201
asbasg297
I1
sbag1193
asbag905
asg297
I1
sbasba(iGraph
Triangle
p1209
(dp1210
g77
(lp1211
g564
ag534
ag540
asg79
(lp1212
g933
ag1185
ag673
asba(iGraph
Triangle
p1213
(dp1214
g77
(lp1215
g570
ag564
ag540
asg79
(lp1216
g949
ag901
ag1185
asbag1181
asg297
I1
sbag793
asba(iGraph
Triangle
p1217
(dp1218
g77
(lp1219
g564
ag573
ag555
asg79
(lp1220
g1173
ag941
ag817
asbasg297
I1
sbag949
asba(iGraph
Triangle
p1221
(dp1222
g77
(lp1223
g573
ag570
ag555
asg79
(lp1224
g1157
ag817
ag969
asba(iGraph
Triangle
p1225
(dp1226
g77
(lp1227
g573
ag570
ag534
asg79
(lp1228
g1157
ag809
ag957
asbasg297
I1
sbag1013
asba(iGraph
Triangle
p1229
(dp1230
g77
(lp1231
g570
ag537
ag558
asg79
(lp1232
g893
ag1013
ag633
asba(iGraph
Triangle
p1233
(dp1234
g77
(lp1235
g570
ag552
ag558
asg79
(lp1236
g977
ag1013
ag609
asbag1009
ag1137
a(iGraph
Triangle
p1237
(dp1238
g77
(lp1239
g555
ag558
ag570
asg79
(lp1240
g825
ag969
ag1013
asbag1149
asg297
I1
sbasba(iGraph
Triangle
p1241
(dp1242
g77
(lp1243
g546
ag570
ag555
asg79
(lp1244
g993
ag841
ag969
asba(iGraph
Triangle
p1245
(dp1246
g77
(lp1247
g546
ag570
ag534
asg79
(lp1248
g993
ag729
ag957
asbasg297
I1
sbasbag981
ag1017
a(iGraph
Triangle
p1249
(dp1250
g77
(lp1251
g543
ag555
ag570
asg79
(lp1252
g833
ag985
ag969
asba(iGraph
Triangle
p1253
(dp1254
g77
(lp1255
g570
ag537
ag543
asg79
(lp1256
g893
ag985
ag705
asba(iGraph
Triangle
p1257
(dp1258
g77
(lp1259
g540
ag543
ag570
asg79
(lp1260
g681
ag901
ag985
asba(iGraph
Triangle
p1261
(dp1262
g77
(lp1263
g543
ag549
ag570
asg79
(lp1264
g857
ag985
ag885
asba(iGraph
Triangle
p1265
(dp1266
g77
(lp1267
g570
ag543
ag534
asg79
(lp1268
g985
ag957
ag721
asbasg297
I1
sbag977
asba(iGraph
Triangle
p1269
(dp1270
g77
(lp1271
g570
ag537
ag552
asg79
(lp1272
g893
ag977
ag649
asbag1129
ag1233
a(iGraph
Triangle
p1273
(dp1274
g77
(lp1275
g570
ag552
ag534
asg79
(lp1276
g977
ag957
ag749
asba(iGraph
Triangle
p1277
(dp1278
g77
(lp1279
g570
ag552
ag549
asg79
(lp1280
g977
ag885
ag865
asbasg297
I1
sbag969
asbag965
ag1249
a(iGraph
Triangle
p1281
(dp1282
g77
(lp1283
g570
ag537
ag555
asg79
(lp1284
g893
ag969
ag657
asbag1241
ag1221
ag881
ag1237
ag945
asg297
I1
sbag957
asbag1273
ag953
ag1037
ag1245
ag1225
a(iGraph
Triangle
p1285
(dp1286
g77
(lp1287
g570
ag540
ag534
asg79
(lp1288
g901
ag957
ag673
asbag1265
ag1149
asg297
I1
sbasbag1169
ag1069
ag1077
ag1213
ag945
asg297
I1
sbag969
ag941
asbag1217
ag1073
asg297
I1
sbag933
asbag929
ag1209
ag1177
ag953
asg297
I1
sbag925
ag1033
asbag1077
ag1061
asg297
I1
sbag1049
asbag1189
ag913
asg297
I1
sbag949
ag909
asbag1045
ag905
ag1205
asg297
I1
sbag901
ag1193
asbag1129
ag1257
ag1005
ag1165
ag1137
ag1213
ag1285
asg297
I1
sbasbag961
ag1205
ag1269
ag1229
ag1161
ag1281
ag1253
ag889
ag997
asg297
I1
sbag885
a(iGraph
Edge
p1289
(dp1290
g50
g51
sg71
NsS'L'
(lp1291
g537
ag549
asg73
(lp1292
g889
a(iGraph
Triangle
p1293
(dp1294
g77
(lp1295
g543
ag537
ag549
asg79
(lp1296
g705
ag857
ag1289
asba(iGraph
Triangle
p1297
(dp1298
g77
(lp1299
g549
ag546
ag537
asg79
(lp1300
g849
ag1289
ag697
asba(iGraph
Triangle
p1301
(dp1302
g77
(lp1303
g552
ag537
ag549
asg79
(lp1304
g649
ag865
ag1289
asba(iGraph
Triangle
p1305
(dp1306
g77
(lp1307
g537
ag555
ag549
asg79
(lp1308
g657
ag1289
ag873
asbasg297
I1
sbasbag1277
ag1001
ag1261
ag1053
ag1069
ag881
asg297
I1
sbag873
ag969
asbag1305
ag1073
asg297
I1
sbasbag861
ag1277
a(iGraph
Triangle
p1309
(dp1310
g77
(lp1311
g549
ag531
ag552
asg79
(lp1312
(iGraph
Edge
p1313
(dp1314
g50
g51
sg71
NsS'L'
(lp1315
g549
ag531
asg73
(lp1316
g1309
a(iGraph
Triangle
p1317
(dp1318
g77
(lp1319
g549
ag531
ag543
asg79
(lp1320
g1313
ag857
ag585
asba(iGraph
Triangle
p1321
(dp1322
g77
(lp1323
g549
ag531
ag546
asg79
(lp1324
g1313
ag849
a(iGraph
Edge
p1325
(dp1326
g50
g51
sg71
NsS'L'
(lp1327
g546
ag531
asg73
(lp1328
g581
a(iGraph
Triangle
p1329
(dp1330
g77
(lp1331
g531
ag534
ag546
asg79
(lp1332
g765
ag1325
ag729
asbag1321
a(iGraph
Triangle
p1333
(dp1334
g77
(lp1335
g531
ag558
ag546
asg79
(lp1336
g773
ag1325
ag625
asbasg297
I1
sbasbasg297
I1
sbag865
a(iGraph
Edge
p1337
(dp1338
g50
g51
sg71
NsS'L'
(lp1339
g531
ag552
asg73
(lp1340
g589
ag761
ag1309
a(iGraph
Triangle
p1341
(dp1342
g77
(lp1343
g531
ag558
ag552
asg79
(lp1344
g773
ag1337
ag609
asbasg297
I1
sbasbag1301
asg297
I1
sbasbag877
ag1293
ag1317
ag1261
asg297
I1
sbag849
asbag1321
ag1001
ag845
ag1297
asg297
I1
sbag873
ag841
asbag1241
a(iGraph
Triangle
p1345
(dp1346
g77
(lp1347
g546
ag537
ag555
asg79
(lp1348
g697
ag841
ag657
asba(iGraph
Triangle
p1349
(dp1350
g77
(lp1351
g555
ag558
ag546
asg79
(lp1352
g825
ag841
ag625
asbasg297
I1
sbasbag597
ag829
a(iGraph
Triangle
p1353
(dp1354
g77
(lp1355
g555
ag534
ag543
asg79
(lp1356
g741
ag833
ag721
asbag1249
a(iGraph
Triangle
p1357
(dp1358
g77
(lp1359
g543
ag555
ag537
asg79
(lp1360
g833
ag705
ag657
asbag877
asg297
I1
sbasbag1093
ag821
a(iGraph
Triangle
p1361
(dp1362
g77
(lp1363
g558
ag537
ag555
asg79
(lp1364
g633
ag825
ag657
asbag1237
ag1349
asg297
I1
sbasbag1221
ag1217
a(iGraph
Triangle
p1365
(dp1366
g77
(lp1367
g537
ag555
ag573
asg79
(lp1368
g657
ag801
ag817
asbasg297
I1
sbag809
asbag1097
a(iGraph
Triangle
p1369
(dp1370
g77
(lp1371
g531
ag534
ag573
asg79
(lp1372
g765
a(iGraph
Edge
p1373
(dp1374
g50
g51
sg71
NsS'L'
(lp1375
g531
ag573
asg73
(lp1376
g781
ag1369
asg297
I1
sbag809
asbag1177
ag1225
a(iGraph
Triangle
p1377
(dp1378
g77
(lp1379
g534
ag573
ag540
asg79
(lp1380
g809
ag673
ag793
asbasg297
I1
sbag801
asba(iGraph
Triangle
p1381
(dp1382
g77
(lp1383
g573
ag558
ag537
asg79
(lp1384
g785
ag801
ag633
asbag1161
ag1365
asg297
I1
sbag793
asbag789
ag1165
ag1377
ag1181
asg297
I1
sbag1105
asbag1153
ag821
ag1381
ag1097
asg297
I1
sbag1373
ag773
asbag769
ag1341
ag1333
asg297
I1
sbag1081
asbag1369
a(iGraph
Triangle
p1385
(dp1386
g77
(lp1387
g531
ag534
ag543
asg79
(lp1388
g765
ag585
ag721
asbag1329
asg297
I1
sbag1337
ag749
asbag1273
ag1133
ag1141
asg297
I1
sbag741
asbag661
ag1093
ag813
ag937
ag965
ag1353
ag737
asg297
I1
sbag841
ag729
asbag1329
a(iGraph
Triangle
p1389
(dp1390
g77
(lp1391
g546
ag540
ag534
asg79
(lp1392
g689
ag729
ag673
asbag1245
ag1145
asg297
I1
sbasbag753
ag717
ag1089
ag1353
ag1385
ag677
ag1265
asg297
I1
sbag705
asba(iGraph
Triangle
p1393
(dp1394
g77
(lp1395
g558
ag543
ag537
asg79
(lp1396
g617
ag633
ag705
asbag1357
ag1253
ag1293
asg297
I1
sbag697
asbag693
ag733
ag997
ag629
ag1297
ag1345
asg297
I1
sbag689
asbag1113
ag1005
ag1389
asg297
I1
sbasbag1125
ag713
ag1109
ag1257
ag677
asg297
I1
sbag673
ag721
asbag1209
ag1389
ag1133
ag1377
ag1101
ag1285
asg297
I1
sbasbag757
ag1085
ag805
ag961
ag661
ag717
ag733
asg297
I1
sbag741
ag657
asbag1357
ag1281
ag1361
ag1345
ag1365
ag1305
asg297
I1
sbasbag709
ag645
ag757
ag1269
a(iGraph
Triangle
p1397
(dp1398
g77
(lp1399
g558
ag537
ag552
asg79
(lp1400
g633
ag609
ag649
asbag1301
asg297
I1
sbag1121
asbag637
ag797
ag897
ag713
ag669
ag1197
ag693
asg297
I1
sbag633
ag1105
asbag1085
ag1393
ag1381
ag1229
ag1397
ag1361
ag629
asg297
I1
sbag625
ag697
asbag1333
ag1113
ag1009
ag1349
ag1145
asg297
I1
sbasbag613
ag777
ag1109
ag1017
ag829
ag1393
ag1089
asg297
I1
sbag609
asbag1233
ag1397
ag1341
ag1117
ag1141
asg297
I1
sbag825
asbag973
ag597
ag653
ag745
ag869
asg297
I1
sbag593
ag833
asbag589
ag1125
ag613
ag981
ag709
ag753
ag861
asg297
I1
sbag585
ag1337
asbag777
ag1385
ag1317
asg297
I1
sbag1325
asbag685
ag621
ag989
ag837
ag701
ag725
ag853
asg297
I1
sbag917
ag601
ag593
ag641
ag665
ag617
ag741
ag909
ag1025
ag833
ag785
ag765
ag893
ag705
ag977
ag1313
ag633
ag849
ag649
ag773
ag585
ag681
ag933
ag1193
ag857
ag689
ag1337
ag1033
ag1121
a(iGraph
Edge
p1401
(dp1402
g50
g51
sg71
NsS'L'
(lp1403
g531
ag567
asg73
(lp1404
sg297
I1
sbag993
ag1157
ag809
ag1373
ag697
ag1105
ag609
ag865
ag885
ag825
ag1201
ag949
ag901
ag841
ag1173
ag657
ag729
ag985
ag1289
ag925
ag673
ag625
ag1041
ag1081
ag957
ag817
ag749
ag1325
ag969
ag941
ag1065
ag1013
ag793
ag801
ag1185
ag873
ag721
ag1049
ag1057
asg526
F14
sg73
(lp1405
g581
ag685
ag621
ag989
ag837
ag701
ag725
ag853
ag921
ag1189
ag913
ag605
ag973
ag597
ag653
ag745
ag869
ag589
ag1125
ag613
ag981
ag709
ag753
ag861
ag645
ag637
ag797
ag897
ag713
ag669
ag1197
ag693
ag757
ag1085
ag805
ag961
ag661
ag717
ag733
ag777
ag1109
ag1017
ag829
ag1393
ag1089
ag1093
ag813
ag937
ag965
ag1353
ag737
ag1045
ag905
ag1205
ag1021
ag1029
ag1249
ag1357
ag877
ag781
ag789
ag1153
ag821
ag1381
ag1097
ag761
ag769
ag1369
ag1385
ag1329
ag1269
ag1229
ag1161
ag1281
ag1253
ag889
ag997
ag1293
ag1129
ag1233
ag1273
ag1277
ag1309
ag1317
ag1321
ag1397
ag1361
ag629
ag1001
ag845
ag1297
ag1301
ag1341
ag1333
ag1257
ag677
ag929
ag1209
ag1177
ag953
ag1261
ag1113
ag1005
ag1389
ag1037
ag1117
ag1133
ag1009
ag1241
ag1245
ag1165
ag1169
ag1221
ag1225
ag1377
ag1345
ag1137
ag1101
ag1141
ag1053
ag1069
ag881
ag1237
ag1349
ag1077
ag1213
ag945
ag1285
ag1181
ag1217
ag1365
ag1305
ag1145
ag1265
ag1061
ag1149
ag1073
asba(iGraph
Graph
p1406
(dp1407
g4
(lp1408
(iGraph
Node
p1409
(dp1410
g8
(lp1411
(iGraph
Node
p1412
(dp1413
g8
(lp1414
(iGraph
Node
p1415
(dp1416
g8
(lp1417
g1412
a(iGraph
Node
p1418
(dp1419
g8
(lp1420
g1412
a(iGraph
Node
p1421
(dp1422
g8
(lp1423
g1418
a(iGraph
Node
p1424
(dp1425
g8
(lp1426
(iGraph
Node
p1427
(dp1428
g8
(lp1429
g1424
a(iGraph
Node
p1430
(dp1431
g8
(lp1432
(iGraph
Node
p1433
(dp1434
g8
(lp1435
g1430
ag1415
a(iGraph
Node
p1436
(dp1437
g8
(lp1438
(iGraph
Node
p1439
(dp1440
g8
(lp1441
g1412
ag1424
ag1430
a(iGraph
Node
p1442
(dp1443
g8
(lp1444
(iGraph
Node
p1445
(dp1446
g8
(lp1447
(iGraph
Node
p1448
(dp1449
g8
(lp1450
g1445
ag1418
a(iGraph
Node
p1451
(dp1452
g8
(lp1453
g1442
ag1448
ag1409
ag1424
ag1436
ag1427
ag1412
ag1439
ag1415
asg49
Nsg50
g51
sS'r'
I5
sg52
I00
sg53
Nsg54
I2
sbag1439
ag1415
ag1430
ag1421
ag1436
ag1433
ag1442
ag1427
asg49
Nsg50
g51
sS'r'
I5
sg52
I00
sg53
Nsg54
I11
sbag1442
ag1436
ag1424
ag1418
ag1412
ag1421
asg49
Nsg50
g51
sS'r'
I5
sg52
I00
sg53
Nsg54
I1
sbag1439
ag1418
ag1409
ag1415
ag1451
ag1433
ag1430
ag1448
ag1427
asg49
Nsg50
g51
sS'r'
I5
sg52
I00
sg53
Nsg54
I6
sbag1436
ag1448
ag1415
ag1427
ag1409
ag1451
asg49
Nsg50
g51
sS'r'
I5
sg52
I00
sg53
Nsg54
I14
sbag1424
ag1433
ag1412
ag1445
ag1409
ag1421
ag1418
ag1430
ag1448
ag1451
ag1427
asg49
Nsg50
g51
sS'r'
I5
sg52
I00
sg53
Nsg54
I12
sbag1442
ag1421
ag1427
ag1448
ag1418
asg49
Nsg50
g51
sS'r'
I5
sg52
I00
sg53
Nsg54
I3
sbag1439
ag1442
ag1412
ag1427
ag1409
ag1448
ag1424
ag1436
ag1421
ag1418
asg49
Nsg50
g51
sS'r'
I5
sg52
I00
sg53
Nsg54
I4
sbag1439
ag1433
ag1409
ag1415
ag1448
ag1451
ag1436
ag1442
asg49
Nsg50
g51
sS'r'
I5
sg52
I00
sg53
Nsg54
I10
sbag1421
ag1439
ag1436
ag1418
ag1409
ag1445
ag1451
ag1430
asg49
Nsg50
g51
sS'r'
I5
sg52
I00
sg53
Nsg54
I5
sbag1412
ag1436
ag1433
ag1448
ag1430
ag1445
asg49
Nsg50
g51
sS'r'
I5
sg52
I00
sg53
Nsg54
I9
sbag1415
ag1442
ag1448
ag1424
ag1436
ag1445
ag1430
ag1433
asg49
Nsg50
g51
sS'r'
I5
sg52
I00
sg53
Nsg54
I7
sbag1433
ag1442
ag1409
ag1439
ag1448
ag1427
ag1451
asg49
Nsg50
g51
sS'r'
I5
sg52
I00
sg53
Nsg54
I8
sbag1418
ag1439
ag1409
ag1436
ag1421
ag1430
ag1445
ag1451
asg49
Nsg50
g51
sS'r'
I5
sg52
I00
sg53
Nsg54
I13
sbag1442
ag1415
ag1436
ag1424
ag1451
ag1430
ag1427
ag1439
asg49
Nsg50
g51
sS'r'
I5
sg52
I00
sg53
Nsg54
I0
sbag1445
ag1451
ag1433
ag1430
ag1424
ag1442
ag1418
ag1415
ag1421
ag1427
ag1448
ag1436
ag1412
ag1439
asg58
I0
sg59
I0
sg60
Nsg61
I0
sg62
I15
sg63
I5
sg64
F14.199999999999999
sg65
g66
sg67
(lp1454
(iGraph
Edge
p1455
(dp1456
g50
g51
sg71
NsS'L'
(lp1457
g1412
ag1415
asg73
(lp1458
(iGraph
Triangle
p1459
(dp1460
g77
(lp1461
g1412
ag1415
ag1409
asg79
(lp1462
g1455
a(iGraph
Edge
p1463
(dp1464
g50
g51
sg71
NsS'L'
(lp1465
g1412
ag1409
asg73
(lp1466
g1459
a(iGraph
Triangle
p1467
(dp1468
g77
(lp1469
g1412
ag1439
ag1409
asg79
(lp1470
(iGraph
Edge
p1471
(dp1472
g50
g51
sg71
NsS'L'
(lp1473
g1412
ag1439
asg73
(lp1474
(iGraph
Triangle
p1475
(dp1476
g77
(lp1477
g1412
ag1415
ag1439
asg79
(lp1478
g1455
ag1471
a(iGraph
Edge
p1479
(dp1480
g50
g51
sg71
NsS'L'
(lp1481
g1415
ag1439
asg73
(lp1482
g1475
a(iGraph
Triangle
p1483
(dp1484
g77
(lp1485
g1442
ag1439
ag1415
asg79
(lp1486
(iGraph
Edge
p1487
(dp1488
g50
g51
sg71
NsS'L'
(lp1489
g1442
ag1439
asg73
(lp1490
(iGraph
Triangle
p1491
(dp1492
g77
(lp1493
g1439
ag1430
ag1442
asg79
(lp1494
(iGraph
Edge
p1495
(dp1496
g50
g51
sg71
NsS'L'
(lp1497
g1439
ag1430
asg73
(lp1498
(iGraph
Triangle
p1499
(dp1500
g77
(lp1501
g1412
ag1439
ag1430
asg79
(lp1502
g1471
a(iGraph
Edge
p1503
(dp1504
g50
g51
sg71
NsS'L'
(lp1505
g1430
ag1412
asg73
(lp1506
(iGraph
Triangle
p1507
(dp1508
g77
(lp1509
g1418
ag1412
ag1430
asg79
(lp1510
(iGraph
Edge
p1511
(dp1512
g50
g51
sg71
NsS'L'
(lp1513
g1418
ag1412
asg73
(lp1514
(iGraph
Triangle
p1515
(dp1516
g77
(lp1517
g1412
ag1415
ag1418
asg79
(lp1518
g1455
ag1511
a(iGraph
Edge
p1519
(dp1520
g50
g51
sg71
NsS'L'
(lp1521
g1418
ag1415
asg73
(lp1522
g1515
a(iGraph
Triangle
p1523
(dp1524
g77
(lp1525
g1418
ag1415
ag1433
asg79
(lp1526
g1519
a(iGraph
Edge
p1527
(dp1528
g50
g51
sg71
NsS'L'
(lp1529
g1433
ag1418
asg73
(lp1530
(iGraph
Triangle
p1531
(dp1532
g77
(lp1533
g1418
ag1421
ag1433
asg79
(lp1534
(iGraph
Edge
p1535
(dp1536
g50
g51
sg71
NsS'L'
(lp1537
g1418
ag1421
asg73
(lp1538
(iGraph
Triangle
p1539
(dp1540
g77
(lp1541
g1418
ag1412
ag1421
asg79
(lp1542
g1511
ag1535
a(iGraph
Edge
p1543
(dp1544
g50
g51
sg71
NsS'L'
(lp1545
g1412
ag1421
asg73
(lp1546
g1539
a(iGraph
Triangle
p1547
(dp1548
g77
(lp1549
g1436
ag1412
ag1421
asg79
(lp1550
(iGraph
Edge
p1551
(dp1552
g50
g51
sg71
NsS'L'
(lp1553
g1436
ag1412
asg73
(lp1554
(iGraph
Triangle
p1555
(dp1556
g77
(lp1557
g1418
ag1412
ag1436
asg79
(lp1558
g1511
a(iGraph
Edge
p1559
(dp1560
g50
g51
sg71
NsS'L'
(lp1561
g1436
ag1418
asg73
(lp1562
g1555
a(iGraph
Triangle
p1563
(dp1564
g77
(lp1565
g1418
ag1421
ag1436
asg79
(lp1566
g1535
ag1559
a(iGraph
Edge
p1567
(dp1568
g50
g51
sg71
NsS'L'
(lp1569
g1436
ag1421
asg73
(lp1570
g1563
a(iGraph
Triangle
p1571
(dp1572
g77
(lp1573
g1424
ag1421
ag1436
asg79
(lp1574
(iGraph
Edge
p1575
(dp1576
g50
g51
sg71
NsS'L'
(lp1577
g1424
ag1421
asg73
(lp1578
(iGraph
Triangle
p1579
(dp1580
g77
(lp1581
g1418
ag1421
ag1424
asg79
(lp1582
g1535
a(iGraph
Edge
p1583
(dp1584
g50
g51
sg71
NsS'L'
(lp1585
g1418
ag1424
asg73
(lp1586
g1579
a(iGraph
Triangle
p1587
(dp1588
g77
(lp1589
g1424
ag1436
ag1418
asg79
(lp1590
(iGraph
Edge
p1591
(dp1592
g50
g51
sg71
NsS'L'
(lp1593
g1424
ag1436
asg73
(lp1594
(iGraph
Triangle
p1595
(dp1596
g77
(lp1597
g1424
ag1427
ag1436
asg79
(lp1598
(iGraph
Edge
p1599
(dp1600
g50
g51
sg71
NsS'L'
(lp1601
g1424
ag1427
asg73
(lp1602
(iGraph
Triangle
p1603
(dp1604
g77
(lp1605
g1424
ag1427
ag1409
asg79
(lp1606
g1599
a(iGraph
Edge
p1607
(dp1608
g50
g51
sg71
NsS'L'
(lp1609
g1424
ag1409
asg73
(lp1610
g1603
a(iGraph
Triangle
p1611
(dp1612
g77
(lp1613
g1439
ag1424
ag1409
asg79
(lp1614
(iGraph
Edge
p1615
(dp1616
g50
g51
sg71
NsS'L'
(lp1617
g1439
ag1424
asg73
(lp1618
(iGraph
Triangle
p1619
(dp1620
g77
(lp1621
g1424
ag1427
ag1439
asg79
(lp1622
g1599
ag1615
a(iGraph
Edge
p1623
(dp1624
g50
g51
sg71
NsS'L'
(lp1625
g1427
ag1439
asg73
(lp1626
g1619
a(iGraph
Triangle
p1627
(dp1628
g77
(lp1629
g1439
ag1430
ag1427
asg79
(lp1630
g1495
ag1623
a(iGraph
Edge
p1631
(dp1632
g50
g51
sg71
NsS'L'
(lp1633
g1430
ag1427
asg73
(lp1634
(iGraph
Triangle
p1635
(dp1636
g77
(lp1637
g1424
ag1427
ag1430
asg79
(lp1638
g1599
a(iGraph
Edge
p1639
(dp1640
g50
g51
sg71
NsS'L'
(lp1641
g1430
ag1424
asg73
(lp1642
g1635
a(iGraph
Triangle
p1643
(dp1644
g77
(lp1645
g1424
ag1421
ag1430
asg79
(lp1646
g1575
ag1639
a(iGraph
Edge
p1647
(dp1648
g50
g51
sg71
NsS'L'
(lp1649
g1421
ag1430
asg73
(lp1650
(iGraph
Triangle
p1651
(dp1652
g77
(lp1653
g1418
ag1421
ag1430
asg79
(lp1654
g1535
a(iGraph
Edge
p1655
(dp1656
g50
g51
sg71
NsS'L'
(lp1657
g1418
ag1430
asg73
(lp1658
g1507
ag1651
a(iGraph
Triangle
p1659
(dp1660
g77
(lp1661
g1433
ag1430
ag1418
asg79
(lp1662
(iGraph
Edge
p1663
(dp1664
g50
g51
sg71
NsS'L'
(lp1665
g1433
ag1430
asg73
(lp1666
(iGraph
Triangle
p1667
(dp1668
g77
(lp1669
g1433
ag1430
ag1442
asg79
(lp1670
g1663
a(iGraph
Edge
p1671
(dp1672
g50
g51
sg71
NsS'L'
(lp1673
g1433
ag1442
asg73
(lp1674
g1667
a(iGraph
Triangle
p1675
(dp1676
g77
(lp1677
g1433
ag1415
ag1442
asg79
(lp1678
(iGraph
Edge
p1679
(dp1680
g50
g51
sg71
NsS'L'
(lp1681
g1433
ag1415
asg73
(lp1682
g1523
ag1675
a(iGraph
Triangle
p1683
(dp1684
g77
(lp1685
g1433
ag1415
ag1427
asg79
(lp1686
g1679
a(iGraph
Edge
p1687
(dp1688
g50
g51
sg71
NsS'L'
(lp1689
g1433
ag1427
asg73
(lp1690
(iGraph
Triangle
p1691
(dp1692
g77
(lp1693
g1433
ag1430
ag1427
asg79
(lp1694
g1663
ag1687
ag1631
asbag1683
a(iGraph
Triangle
p1695
(dp1696
g77
(lp1697
g1433
ag1436
ag1427
asg79
(lp1698
(iGraph
Edge
p1699
(dp1700
g50
g51
sg71
NsS'L'
(lp1701
g1433
ag1436
asg73
(lp1702
(iGraph
Triangle
p1703
(dp1704
g77
(lp1705
g1433
ag1430
ag1436
asg79
(lp1706
g1663
ag1699
a(iGraph
Edge
p1707
(dp1708
g50
g51
sg71
NsS'L'
(lp1709
g1436
ag1430
asg73
(lp1710
g1703
a(iGraph
Triangle
p1711
(dp1712
g77
(lp1713
g1439
ag1430
ag1436
asg79
(lp1714
g1495
a(iGraph
Edge
p1715
(dp1716
g50
g51
sg71
NsS'L'
(lp1717
g1436
ag1439
asg73
(lp1718
(iGraph
Triangle
p1719
(dp1720
g77
(lp1721
g1412
ag1439
ag1436
asg79
(lp1722
g1471
ag1551
ag1715
asba(iGraph
Triangle
p1723
(dp1724
g77
(lp1725
g1439
ag1424
ag1436
asg79
(lp1726
g1615
ag1715
ag1591
asbag1711
a(iGraph
Triangle
p1727
(dp1728
g77
(lp1729
g1436
ag1439
ag1409
asg79
(lp1730
g1715
a(iGraph
Edge
p1731
(dp1732
g50
g51
sg71
NsS'L'
(lp1733
g1409
ag1436
asg73
(lp1734
(iGraph
Triangle
p1735
(dp1736
g77
(lp1737
g1412
ag1409
ag1436
asg79
(lp1738
g1463
ag1551
ag1731
asbag1727
a(iGraph
Triangle
p1739
(dp1740
g77
(lp1741
g1424
ag1436
ag1409
asg79
(lp1742
g1591
ag1607
ag1731
asba(iGraph
Triangle
p1743
(dp1744
g77
(lp1745
g1409
ag1436
ag1451
asg79
(lp1746
g1731
a(iGraph
Edge
p1747
(dp1748
g50
g51
sg71
NsS'L'
(lp1749
g1451
ag1409
asg73
(lp1750
(iGraph
Triangle
p1751
(dp1752
g77
(lp1753
g1412
ag1409
ag1451
asg79
(lp1754
g1463
a(iGraph
Edge
p1755
(dp1756
g50
g51
sg71
NsS'L'
(lp1757
g1412
ag1451
asg73
(lp1758
(iGraph
Triangle
p1759
(dp1760
g77
(lp1761
g1412
ag1415
ag1451
asg79
(lp1762
g1455
ag1755
a(iGraph
Edge
p1763
(dp1764
g50
g51
sg71
NsS'L'
(lp1765
g1415
ag1451
asg73
(lp1766
g1759
a(iGraph
Triangle
p1767
(dp1768
g77
(lp1769
g1442
ag1415
ag1451
asg79
(lp1770
(iGraph
Edge
p1771
(dp1772
g50
g51
sg71
NsS'L'
(lp1773
g1442
ag1415
asg73
(lp1774
(iGraph
Triangle
p1775
(dp1776
g77
(lp1777
g1418
ag1415
ag1442
asg79
(lp1778
g1519
a(iGraph
Edge
p1779
(dp1780
g50
g51
sg71
NsS'L'
(lp1781
g1442
ag1418
asg73
(lp1782
g1775
a(iGraph
Triangle
p1783
(dp1784
g77
(lp1785
g1445
ag1442
ag1418
asg79
(lp1786
(iGraph
Edge
p1787
(dp1788
g50
g51
sg71
NsS'L'
(lp1789
g1445
ag1442
asg73
(lp1790
(iGraph
Triangle
p1791
(dp1792
g77
(lp1793
g1448
ag1445
ag1442
asg79
(lp1794
(iGraph
Edge
p1795
(dp1796
g50
g51
sg71
NsS'L'
(lp1797
g1448
ag1445
asg73
(lp1798
g1791
a(iGraph
Triangle
p1799
(dp1800
g77
(lp1801
g1448
ag1445
ag1418
asg79
(lp1802
g1795
a(iGraph
Edge
p1803
(dp1804
g50
g51
sg71
NsS'L'
(lp1805
g1448
ag1418
asg73
(lp1806
g1799
a(iGraph
Triangle
p1807
(dp1808
g77
(lp1809
g1418
ag1421
ag1448
asg79
(lp1810
g1535
ag1803
a(iGraph
Edge
p1811
(dp1812
g50
g51
sg71
NsS'L'
(lp1813
g1421
ag1448
asg73
(lp1814
(iGraph
Triangle
p1815
(dp1816
g77
(lp1817
g1448
ag1445
ag1421
asg79
(lp1818
g1795
ag1811
a(iGraph
Edge
p1819
(dp1820
g50
g51
sg71
NsS'L'
(lp1821
g1421
ag1445
asg73
(lp1822
g1815
a(iGraph
Triangle
p1823
(dp1824
g77
(lp1825
g1418
ag1421
ag1445
asg79
(lp1826
g1535
a(iGraph
Edge
p1827
(dp1828
g50
g51
sg71
NsS'L'
(lp1829
g1418
ag1445
asg73
(lp1830
(iGraph
Triangle
p1831
(dp1832
g77
(lp1833
g1418
ag1412
ag1445
asg79
(lp1834
g1511
ag1827
a(iGraph
Edge
p1835
(dp1836
g50
g51
sg71
NsS'L'
(lp1837
g1412
ag1445
asg73
(lp1838
g1831
a(iGraph
Triangle
p1839
(dp1840
g77
(lp1841
g1436
ag1412
ag1445
asg79
(lp1842
g1551
a(iGraph
Edge
p1843
(dp1844
g50
g51
sg71
NsS'L'
(lp1845
g1445
ag1436
asg73
(lp1846
(iGraph
Triangle
p1847
(dp1848
g77
(lp1849
g1448
ag1445
ag1436
asg79
(lp1850
g1795
a(iGraph
Edge
p1851
(dp1852
g50
g51
sg71
NsS'L'
(lp1853
g1436
ag1448
asg73
(lp1854
g1847
a(iGraph
Triangle
p1855
(dp1856
g77
(lp1857
g1436
ag1439
ag1448
asg79
(lp1858
g1715
ag1851
a(iGraph
Edge
p1859
(dp1860
g50
g51
sg71
NsS'L'
(lp1861
g1439
ag1448
asg73
(lp1862
(iGraph
Triangle
p1863
(dp1864
g77
(lp1865
g1439
ag1430
ag1448
asg79
(lp1866
g1495
ag1859
a(iGraph
Edge
p1867
(dp1868
g50
g51
sg71
NsS'L'
(lp1869
g1430
ag1448
asg73
(lp1870
(iGraph
Triangle
p1871
(dp1872
g77
(lp1873
g1433
ag1430
ag1448
asg79
(lp1874
g1663
a(iGraph
Edge
p1875
(dp1876
g50
g51
sg71
NsS'L'
(lp1877
g1433
ag1448
asg73
(lp1878
g1871
a(iGraph
Triangle
p1879
(dp1880
g77
(lp1881
g1433
ag1415
ag1448
asg79
(lp1882
g1679
ag1875
a(iGraph
Edge
p1883
(dp1884
g50
g51
sg71
NsS'L'
(lp1885
g1415
ag1448
asg73
(lp1886
(iGraph
Triangle
p1887
(dp1888
g77
(lp1889
g1418
ag1415
ag1448
asg79
(lp1890
g1519
ag1803
ag1883
asbag1879
a(iGraph
Triangle
p1891
(dp1892
g77
(lp1893
g1442
ag1415
ag1448
asg79
(lp1894
g1771
a(iGraph
Edge
p1895
(dp1896
g50
g51
sg71
NsS'L'
(lp1897
g1442
ag1448
asg73
(lp1898
g1791
a(iGraph
Triangle
p1899
(dp1900
g77
(lp1901
g1442
ag1439
ag1448
asg79
(lp1902
g1487
ag1895
ag1859
asba(iGraph
Triangle
p1903
(dp1904
g77
(lp1905
g1442
ag1418
ag1448
asg79
(lp1906
g1779
ag1895
ag1803
asbag1891
a(iGraph
Triangle
p1907
(dp1908
g77
(lp1909
g1442
ag1451
ag1448
asg79
(lp1910
(iGraph
Edge
p1911
(dp1912
g50
g51
sg71
NsS'L'
(lp1913
g1442
ag1451
asg73
(lp1914
(iGraph
Triangle
p1915
(dp1916
g77
(lp1917
g1442
ag1439
ag1451
asg79
(lp1918
g1487
ag1911
a(iGraph
Edge
p1919
(dp1920
g50
g51
sg71
NsS'L'
(lp1921
g1439
ag1451
asg73
(lp1922
(iGraph
Triangle
p1923
(dp1924
g77
(lp1925
g1412
ag1439
ag1451
asg79
(lp1926
g1471
ag1755
ag1919
asba(iGraph
Triangle
p1927
(dp1928
g77
(lp1929
g1439
ag1424
ag1451
asg79
(lp1930
g1615
ag1919
a(iGraph
Edge
p1931
(dp1932
g50
g51
sg71
NsS'L'
(lp1933
g1424
ag1451
asg73
(lp1934
(iGraph
Triangle
p1935
(dp1936
g77
(lp1937
g1424
ag1427
ag1451
asg79
(lp1938
g1599
ag1931
a(iGraph
Edge
p1939
(dp1940
g50
g51
sg71
NsS'L'
(lp1941
g1451
ag1427
asg73
(lp1942
g1935
a(iGraph
Triangle
p1943
(dp1944
g77
(lp1945
g1442
ag1451
ag1427
asg79
(lp1946
g1911
a(iGraph
Edge
p1947
(dp1948
g50
g51
sg71
NsS'L'
(lp1949
g1442
ag1427
asg73
(lp1950
(iGraph
Triangle
p1951
(dp1952
g77
(lp1953
g1442
ag1439
ag1427
asg79
(lp1954
g1487
ag1947
ag1623
asba(iGraph
Triangle
p1955
(dp1956
g77
(lp1957
g1442
ag1409
ag1427
asg79
(lp1958
(iGraph
Edge
p1959
(dp1960
g50
g51
sg71
NsS'L'
(lp1961
g1442
ag1409
asg73
(lp1962
(iGraph
Triangle
p1963
(dp1964
g77
(lp1965
g1442
ag1439
ag1409
asg79
(lp1966
g1487
ag1959
a(iGraph
Edge
p1967
(dp1968
g50
g51
sg71
NsS'L'
(lp1969
g1409
ag1439
asg73
(lp1970
g1467
ag1611
a(iGraph
Triangle
p1971
(dp1972
g77
(lp1973
g1439
ag1430
ag1409
asg79
(lp1974
g1495
ag1967
a(iGraph
Edge
p1975
(dp1976
g50
g51
sg71
NsS'L'
(lp1977
g1409
ag1430
asg73
(lp1978
(iGraph
Triangle
p1979
(dp1980
g77
(lp1981
g1412
ag1409
ag1430
asg79
(lp1982
g1463
ag1503
ag1975
asbag1971
a(iGraph
Triangle
p1983
(dp1984
g77
(lp1985
g1442
ag1409
ag1430
asg79
(lp1986
g1959
a(iGraph
Edge
p1987
(dp1988
g50
g51
sg71
NsS'L'
(lp1989
g1430
ag1442
asg73
(lp1990
g1667
ag1491
a(iGraph
Triangle
p1991
(dp1992
g77
(lp1993
g1442
ag1418
ag1430
asg79
(lp1994
g1779
ag1987
ag1655
asbag1983
a(iGraph
Triangle
p1995
(dp1996
g77
(lp1997
g1430
ag1442
ag1427
asg79
(lp1998
g1987
ag1631
ag1947
asba(iGraph
Triangle
p1999
(dp2000
g77
(lp2001
g1430
ag1442
ag1448
asg79
(lp2002
g1987
ag1867
ag1895
asbasg297
I1
sbag1975
asba(iGraph
Triangle
p2003
(dp2004
g77
(lp2005
g1409
ag1436
ag1430
asg79
(lp2006
g1731
ag1975
ag1707
asba(iGraph
Triangle
p2007
(dp2008
g77
(lp2009
g1424
ag1409
ag1430
asg79
(lp2010
g1607
ag1639
ag1975
asba(iGraph
Triangle
p2011
(dp2012
g77
(lp2013
g1430
ag1427
ag1409
asg79
(lp2014
g1631
ag1975
a(iGraph
Edge
p2015
(dp2016
g50
g51
sg71
NsS'L'
(lp2017
g1427
ag1409
asg73
(lp2018
g1603
ag1955
a(iGraph
Triangle
p2019
(dp2020
g77
(lp2021
g1409
ag1415
ag1427
asg79
(lp2022
(iGraph
Edge
p2023
(dp2024
g50
g51
sg71
NsS'L'
(lp2025
g1409
ag1415
asg73
(lp2026
g1459
a(iGraph
Triangle
p2027
(dp2028
g77
(lp2029
g1442
ag1409
ag1415
asg79
(lp2030
g1959
ag1771
ag2023
asba(iGraph
Triangle
p2031
(dp2032
g77
(lp2033
g1409
ag1415
ag1451
asg79
(lp2034
g2023
ag1747
ag1763
asbag2019
a(iGraph
Triangle
p2035
(dp2036
g77
(lp2037
g1409
ag1415
ag1439
asg79
(lp2038
g2023
ag1967
ag1479
asbasg297
I1
sbag2015
a(iGraph
Edge
p2039
(dp2040
g50
g51
sg71
NsS'L'
(lp2041
g1415
ag1427
asg73
(lp2042
g1683
a(iGraph
Triangle
p2043
(dp2044
g77
(lp2045
g1442
ag1415
ag1427
asg79
(lp2046
g1771
ag1947
ag2039
asbag2019
a(iGraph
Triangle
p2047
(dp2048
g77
(lp2049
g1415
ag1439
ag1427
asg79
(lp2050
g1479
ag2039
ag1623
asba(iGraph
Triangle
p2051
(dp2052
g77
(lp2053
g1415
ag1448
ag1427
asg79
(lp2054
g1883
ag2039
a(iGraph
Edge
p2055
(dp2056
g50
g51
sg71
NsS'L'
(lp2057
g1427
ag1448
asg73
(lp2058
(iGraph
Triangle
p2059
(dp2060
g77
(lp2061
g1448
ag1451
ag1427
asg79
(lp2062
(iGraph
Edge
p2063
(dp2064
g50
g51
sg71
NsS'L'
(lp2065
g1448
ag1451
asg73
(lp2066
g1907
a(iGraph
Triangle
p2067
(dp2068
g77
(lp2069
g1448
ag1451
ag1415
asg79
(lp2070
g2063
ag1883
ag1763
asbag2059
a(iGraph
Triangle
p2071
(dp2072
g77
(lp2073
g1448
ag1451
ag1436
asg79
(lp2074
g2063
ag1851
a(iGraph
Edge
p2075
(dp2076
g50
g51
sg71
NsS'L'
(lp2077
g1436
ag1451
asg73
(lp2078
(iGraph
Triangle
p2079
(dp2080
g77
(lp2081
g1436
ag1439
ag1451
asg79
(lp2082
g1715
ag2075
ag1919
asba(iGraph
Triangle
p2083
(dp2084
g77
(lp2085
g1424
ag1436
ag1451
asg79
(lp2086
g1591
ag1931
ag2075
asba(iGraph
Triangle
p2087
(dp2088
g77
(lp2089
g1436
ag1412
ag1451
asg79
(lp2090
g1551
ag2075
ag1755
asbag2071
ag1743
a(iGraph
Triangle
p2091
(dp2092
g77
(lp2093
g1436
ag1451
ag1427
asg79
(lp2094
g2075
a(iGraph
Edge
p2095
(dp2096
g50
g51
sg71
NsS'L'
(lp2097
g1427
ag1436
asg73
(lp2098
g1595
a(iGraph
Triangle
p2099
(dp2100
g77
(lp2101
g1436
ag1439
ag1427
asg79
(lp2102
g1715
ag2095
ag1623
asbag1695
a(iGraph
Triangle
p2103
(dp2104
g77
(lp2105
g1409
ag1436
ag1427
asg79
(lp2106
g1731
ag2015
ag2095
asba(iGraph
Triangle
p2107
(dp2108
g77
(lp2109
g1430
ag1427
ag1436
asg79
(lp2110
g1631
ag1707
ag2095
asba(iGraph
Triangle
p2111
(dp2112
g77
(lp2113
g1436
ag1448
ag1427
asg79
(lp2114
g1851
ag2095
ag2055
asbag2091
asg297
I1
sbag1939
asbasg297
I1
sbasba(iGraph
Triangle
p2115
(dp2116
g77
(lp2117
g1448
ag1451
ag1439
asg79
(lp2118
g2063
ag1859
ag1919
asbasg297
I1
sbag2055
ag1939
asba(iGraph
Triangle
p2119
(dp2120
g77
(lp2121
g1439
ag1448
ag1427
asg79
(lp2122
g1859
ag1623
ag2055
asba(iGraph
Triangle
p2123
(dp2124
g77
(lp2125
g1430
ag1427
ag1448
asg79
(lp2126
g1631
ag1867
ag2055
asbag2051
a(iGraph
Triangle
p2127
(dp2128
g77
(lp2129
g1433
ag1427
ag1448
asg79
(lp2130
g1687
ag1875
ag2055
asbag2111
a(iGraph
Triangle
p2131
(dp2132
g77
(lp2133
g1442
ag1448
ag1427
asg79
(lp2134
g1895
ag1947
ag2055
asbasg297
I1
sbasba(iGraph
Triangle
p2135
(dp2136
g77
(lp2137
g1415
ag1427
ag1451
asg79
(lp2138
g2039
ag1763
ag1939
asbasg297
I1
sbasbag2103
ag2011
a(iGraph
Triangle
p2139
(dp2140
g77
(lp2141
g1427
ag1439
ag1409
asg79
(lp2142
g1623
ag2015
ag1967
asba(iGraph
Triangle
p2143
(dp2144
g77
(lp2145
g1451
ag1409
ag1427
asg79
(lp2146
g1747
ag1939
ag2015
asbasg297
I1
sbasbasg297
I1
sbasbag1963
ag1727
ag2035
ag2139
a(iGraph
Triangle
p2147
(dp2148
g77
(lp2149
g1451
ag1409
ag1439
asg79
(lp2150
g1747
ag1919
ag1967
asbasg297
I1
sbasba(iGraph
Triangle
p2151
(dp2152
g77
(lp2153
g1442
ag1409
ag1451
asg79
(lp2154
g1959
ag1911
ag1747
asbag1983
ag2027
ag1955
asg297
I1
sbag1947
ag2015
asbag2043
ag1943
a(iGraph
Triangle
p2155
(dp2156
g77
(lp2157
g1433
ag1442
ag1427
asg79
(lp2158
g1671
ag1687
ag1947
asbag1995
ag2131
asg297
I1
sbag1939
asbag2059
a(iGraph
Triangle
p2159
(dp2160
g77
(lp2161
g1427
ag1439
ag1451
asg79
(lp2162
g1623
ag1939
ag1919
asbag2143
ag2135
ag2091
asg297
I1
sbasbag1927
ag2083
a(iGraph
Triangle
p2163
(dp2164
g77
(lp2165
g1424
ag1409
ag1451
asg79
(lp2166
g1607
ag1931
ag1747
asbasg297
I1
sbasbag1915
ag2079
ag2115
a(iGraph
Triangle
p2167
(dp2168
g77
(lp2169
g1415
ag1439
ag1451
asg79
(lp2170
g1479
ag1763
ag1919
asbag2159
ag2147
asg297
I1
sbasbag2151
ag1767
ag1943
ag1907
asg297
I1
sbag1895
ag2063
asba(iGraph
Triangle
p2171
(dp2172
g77
(lp2173
g1433
ag1442
ag1448
asg79
(lp2174
g1671
ag1875
ag1895
asbag1999
ag2131
asg297
I1
sbag1883
asbag2067
a(iGraph
Triangle
p2175
(dp2176
g77
(lp2177
g1439
ag1448
ag1415
asg79
(lp2178
g1859
ag1479
ag1883
asbag2051
asg297
I1
sbasba(iGraph
Triangle
p2179
(dp2180
g77
(lp2181
g1448
ag1418
ag1433
asg79
(lp2182
g1803
ag1875
ag1527
asba(iGraph
Triangle
p2183
(dp2184
g77
(lp2185
g1433
ag1436
ag1448
asg79
(lp2186
g1699
ag1875
ag1851
asbag2171
a(iGraph
Triangle
p2187
(dp2188
g77
(lp2189
g1421
ag1433
ag1448
asg79
(lp2190
(iGraph
Edge
p2191
(dp2192
g50
g51
sg71
NsS'L'
(lp2193
g1421
ag1433
asg73
(lp2194
g1531
a(iGraph
Triangle
p2195
(dp2196
g77
(lp2197
g1433
ag1430
ag1421
asg79
(lp2198
g1663
ag2191
ag1647
asba(iGraph
Triangle
p2199
(dp2200
g77
(lp2201
g1433
ag1436
ag1421
asg79
(lp2202
g1699
ag2191
ag1567
asbag2187
asg297
I1
sbag1811
ag1875
asbag2127
asg297
I1
sbag1867
asbag1863
a(iGraph
Triangle
p2203
(dp2204
g77
(lp2205
g1448
ag1418
ag1430
asg79
(lp2206
g1803
ag1867
ag1655
asbag1999
ag2123
a(iGraph
Triangle
p2207
(dp2208
g77
(lp2209
g1430
ag1448
ag1421
asg79
(lp2210
g1867
ag1647
ag1811
asba(iGraph
Triangle
p2211
(dp2212
g77
(lp2213
g1430
ag1448
ag1436
asg79
(lp2214
g1867
ag1707
ag1851
asbasg297
I1
sbasbag1899
ag1855
ag2115
ag2175
ag2119
asg297
I1
sbasba(iGraph
Triangle
p2215
(dp2216
g77
(lp2217
g1448
ag1418
ag1436
asg79
(lp2218
g1803
ag1851
ag1559
asbag2183
ag2071
a(iGraph
Triangle
p2219
(dp2220
g77
(lp2221
g1436
ag1421
ag1448
asg79
(lp2222
g1567
ag1851
ag1811
asbag2211
ag2111
asg297
I1
sbag1843
asba(iGraph
Triangle
p2223
(dp2224
g77
(lp2225
g1424
ag1436
ag1445
asg79
(lp2226
g1591
a(iGraph
Edge
p2227
(dp2228
g50
g51
sg71
NsS'L'
(lp2229
g1445
ag1424
asg73
(lp2230
(iGraph
Triangle
p2231
(dp2232
g77
(lp2233
g1424
ag1421
ag1445
asg79
(lp2234
g1575
ag2227
ag1819
asbag2223
a(iGraph
Triangle
p2235
(dp2236
g77
(lp2237
g1418
ag1424
ag1445
asg79
(lp2238
g1583
ag1827
ag2227
asbasg297
I1
sbag1843
asbag1839
a(iGraph
Triangle
p2239
(dp2240
g77
(lp2241
g1445
ag1436
ag1418
asg79
(lp2242
g1843
ag1827
ag1559
asba(iGraph
Triangle
p2243
(dp2244
g77
(lp2245
g1445
ag1436
ag1421
asg79
(lp2246
g1843
ag1819
ag1567
asbasg297
I1
sbag1835
asba(iGraph
Triangle
p2247
(dp2248
g77
(lp2249
g1412
ag1421
ag1445
asg79
(lp2250
g1543
ag1835
ag1819
asbasg297
I1
sbasbag1799
ag1823
ag1783
ag2235
ag2239
asg297
I1
sbag1819
asbag2231
ag2243
ag2247
asg297
I1
sbasbag1807
ag2219
ag2187
ag2207
asg297
I1
sbasbag1887
ag1903
ag2179
ag2203
ag2215
asg297
I1
sbag1827
asbag1815
ag1847
asg297
I1
sbag1895
ag1787
asbag1783
asg297
I1
sbag1827
ag1779
asba(iGraph
Triangle
p2251
(dp2252
g77
(lp2253
g1442
ag1418
ag1433
asg79
(lp2254
g1779
ag1671
ag1527
asbag1991
ag1903
asg297
I1
sbag1771
asbag1483
ag1675
ag2027
ag1767
ag2043
ag1891
asg297
I1
sbag1911
ag1763
asbag2031
ag2067
ag2167
ag2135
asg297
I1
sbasbag1923
ag1751
ag2087
asg297
I1
sbag1747
asbag2151
ag2031
ag1743
ag2163
ag2143
ag2147
asg297
I1
sbag2075
asbag2003
ag2103
asg297
I1
sbag1967
asbag2079
ag2099
ag1855
asg297
I1
sbag1707
asba(iGraph
Triangle
p2255
(dp2256
g77
(lp2257
g1424
ag1436
ag1430
asg79
(lp2258
g1591
ag1639
ag1707
asba(iGraph
Triangle
p2259
(dp2260
g77
(lp2261
g1436
ag1412
ag1430
asg79
(lp2262
g1551
ag1707
ag1503
asbag2003
a(iGraph
Triangle
p2263
(dp2264
g77
(lp2265
g1436
ag1421
ag1430
asg79
(lp2266
g1567
ag1707
ag1647
asba(iGraph
Triangle
p2267
(dp2268
g77
(lp2269
g1436
ag1418
ag1430
asg79
(lp2270
g1559
ag1707
ag1655
asbag2107
ag2211
asg297
I1
sbasba(iGraph
Triangle
p2271
(dp2272
g77
(lp2273
g1433
ag1436
ag1418
asg79
(lp2274
g1699
ag1527
ag1559
asbag2199
ag1695
ag2183
asg297
I1
sbag1687
ag2095
asbag2155
ag2127
asg297
I1
sbag2039
asbag1879
asg297
I1
sbag1671
ag1771
asbag2251
ag2155
ag2171
asg297
I1
sbag1987
asbag1659
ag2195
ag1691
ag1871
ag1703
asg297
I1
sbag1527
ag1655
asbag1991
ag2203
a(iGraph
Triangle
p2275
(dp2276
g77
(lp2277
g1418
ag1424
ag1430
asg79
(lp2278
g1583
ag1655
ag1639
asbag2267
asg297
I1
sbag1647
asbag2195
ag1643
a(iGraph
Triangle
p2279
(dp2280
g77
(lp2281
g1412
ag1421
ag1430
asg79
(lp2282
g1543
ag1503
ag1647
asbag2263
ag2207
asg297
I1
sbasba(iGraph
Triangle
p2283
(dp2284
g77
(lp2285
g1439
ag1424
ag1430
asg79
(lp2286
g1615
ag1495
ag1639
asbag2255
ag2275
ag2007
asg297
I1
sbag1631
asbag1691
ag1627
ag1995
ag2011
ag2123
ag2107
asg297
I1
sbasbag1951
ag2099
ag2119
ag2047
ag2139
ag2159
asg297
I1
sbasbag1611
ag1927
ag2283
ag1723
asg297
I1
sbag1967
ag1607
asbag1739
ag2163
ag2007
asg297
I1
sbag2015
asbag1935
ag1635
ag1595
ag1619
asg297
I1
sbag1591
ag2095
asbag1571
ag1723
ag1739
ag2223
ag2083
ag2255
ag1587
asg297
I1
sbag1583
ag1559
asbag2235
ag2275
asg297
I1
sbag1575
asbag2231
ag1643
ag1571
asg297
I1
sbag1591
ag1567
asbag2199
ag1547
ag2243
ag2263
ag2219
asg297
I1
sbasbag2215
ag1587
ag2271
ag2239
ag2267
asg297
I1
sbag1551
asbag1719
ag1735
ag1839
ag2087
ag2259
ag1547
asg297
I1
sbag1567
ag1543
asbag2247
ag2279
asg297
I1
sbasbag1823
ag1531
ag1651
ag1579
ag1807
ag1563
asg297
I1
sbag1527
ag2191
asbag1523
ag1659
ag2251
ag2179
ag2271
asg297
I1
sbag1679
asbag1775
ag1887
asg297
I1
sbasbag1831
ag1507
ag1539
ag1555
asg297
I1
sbag1655
ag1503
asbag1499
ag1979
ag2259
ag2279
asg297
I1
sbag1495
asbag2283
ag1971
ag1491
ag1627
ag1863
ag1711
asg297
I1
sbag1487
ag1987
asbag1963
ag1915
ag1483
ag1951
ag1899
asg297
I1
sbag1771
ag1479
asbag2035
ag2175
ag2167
ag2047
asg297
I1
sbasbag1467
ag1923
ag1499
ag1719
asg297
I1
sbag1463
ag1967
asbag1751
ag1979
ag1735
asg297
I1
sbag2023
asbag1759
ag1515
ag1475
asg297
I1
sbag1511
ag1795
ag1599
ag1471
ag1535
ag1519
ag1663
ag1575
ag1615
ag1787
ag1463
ag1495
ag1487
ag1679
ag1779
ag1715
ag1803
ag1959
ag1771
ag1591
ag1911
ag1699
ag1671
ag1551
ag1583
ag2023
ag2063
ag1859
ag1843
ag1543
ag1731
ag1987
ag1567
ag1607
ag1559
ag1503
ag1479
ag1631
ag1623
ag2191
ag1747
ag1883
ag1975
ag2227
ag1867
ag1687
ag1811
ag1931
ag2015
ag1639
ag2039
ag1707
ag1827
ag1851
ag1835
ag1875
ag2075
ag1895
ag2055
ag1647
ag1939
ag1819
ag1655
ag1967
ag1755
ag1919
ag2095
ag1527
ag1763
ag1947
asg526
F14.199999999999999
sg73
(lp2287
g1459
ag1759
ag1515
ag1475
ag1831
ag1507
ag1539
ag1555
ag1791
ag1799
ag1815
ag1847
ag1603
ag1935
ag1635
ag1595
ag1619
ag1467
ag1923
ag1499
ag1719
ag1823
ag1531
ag1651
ag1579
ag1807
ag1563
ag1523
ag1775
ag1887
ag1667
ag1659
ag2195
ag1691
ag1871
ag1703
ag2231
ag1643
ag1571
ag1611
ag1927
ag2283
ag1723
ag1783
ag1751
ag1979
ag1735
ag1971
ag1491
ag1627
ag1863
ag1711
ag1963
ag1915
ag1483
ag1951
ag1899
ag1675
ag1683
ag1879
ag2251
ag1991
ag1903
ag1727
ag2079
ag2099
ag1855
ag2179
ag2203
ag2215
ag2151
ag1983
ag2027
ag1955
ag1767
ag2043
ag1891
ag1739
ag2223
ag2083
ag2255
ag1587
ag1943
ag1907
ag2271
ag2199
ag1695
ag2183
ag2155
ag2171
ag1839
ag2087
ag2259
ag1547
ag2235
ag2275
ag2031
ag2019
ag2035
ag2067
ag2059
ag2071
ag2115
ag2175
ag2119
ag2239
ag2243
ag2247
ag2279
ag1743
ag2003
ag2103
ag1995
ag1999
ag2263
ag2219
ag2163
ag2007
ag2267
ag2167
ag2047
ag2011
ag2123
ag2107
ag2139
ag2159
ag2187
ag2143
ag2147
ag2051
ag2207
ag2211
ag2127
ag2135
ag2111
ag2091
ag2131
asba(iGraph
Graph
p2288
(dp2289
g4
(lp2290
(iGraph
Node
p2291
(dp2292
g8
(lp2293
(iGraph
Node
p2294
(dp2295
g8
(lp2296
g2291
a(iGraph
Node
p2297
(dp2298
g8
(lp2299
(iGraph
Node
p2300
(dp2301
g8
(lp2302
g2297
a(iGraph
Node
p2303
(dp2304
g8
(lp2305
(iGraph
Node
p2306
(dp2307
g8
(lp2308
g2303
a(iGraph
Node
p2309
(dp2310
g8
(lp2311
g2303
ag2306
a(iGraph
Node
p2312
(dp2313
g8
(lp2314
g2297
ag2309
ag2306
a(iGraph
Node
p2315
(dp2316
g8
(lp2317
(iGraph
Node
p2318
(dp2319
g8
(lp2320
g2315
ag2297
a(iGraph
Node
p2321
(dp2322
g8
(lp2323
(iGraph
Node
p2324
(dp2325
g8
(lp2326
g2321
ag2297
asg49
Nsg50
g51
sS'r'
I5
sg52
I00
sg53
Nsg54
I13
sbag2318
ag2300
asg49
Nsg50
g51
sS'r'
I5
sg52
I00
sg53
Nsg54
I11
sba(iGraph
Node
p2327
(dp2328
g8
(lp2329
g2297
ag2318
ag2291
asg49
Nsg50
g51
sS'r'
I5
sg52
I00
sg53
Nsg54
I3
sbasg49
Nsg50
g51
sS'r'
I5
sg52
I00
sg53
Nsg54
I10
sbag2303
ag2312
asg49
Nsg50
g51
sS'r'
I5
sg52
I00
sg53
Nsg54
I5
sbasg49
Nsg50
g51
sS'r'
I5
sg52
I00
sg53
Nsg54
I7
sbasg49
Nsg50
g51
sS'r'
I5
sg52
I00
sg53
Nsg54
I6
sbag2312
asg49
Nsg50
g51
sS'r'
I5
sg52
I00
sg53
Nsg54
I9
sbag2300
ag2309
ag2315
ag2291
asg49
Nsg50
g51
sS'r'
I5
sg52
I00
sg53
Nsg54
I2
sbag2321
asg49
Nsg50
g51
sS'r'
I5
sg52
I00
sg53
Nsg54
I4
sbag2318
ag2312
ag2327
ag2324
a(iGraph
Node
p2330
(dp2331
g8
(lp2332
g2297
asg49
Nsg50
g51
sS'r'
I5
sg52
I00
sg53
Nsg54
I14
sbag2294
asg49
Nsg50
g51
sS'r'
I5
sg52
I00
sg53
Nsg54
I1
sbasg49
Nsg50
g51
sS'r'
I5
sg52
I00
sg53
Nsg54
I8
sbag2303
ag2327
asg49
Nsg50
g51
sS'r'
I5
sg52
I00
sg53
Nsg54
I0
sbag2297
ag2303
ag2327
ag2300
ag2315
ag2309
ag2312
ag2294
ag2306
ag2318
ag2321
a(iGraph
Node
p2333
(dp2334
g8
(lp2335
sg49
Nsg50
g51
sS'r'
I5
sg52
I00
sg53
Nsg54
I12
sbag2324
ag2330
asg58
I0
sg59
I0
sg60
Nsg61
I0
sg62
I15
sg63
I5
sg64
F4.5999999999999996
sg65
g66
sg67
(lp2336
(iGraph
Edge
p2337
(dp2338
g50
g51
sg71
NsS'L'
(lp2339
g2300
ag2297
asg73
(lp2340
sg297
I1
sba(iGraph
Edge
p2341
(dp2342
g50
g51
sg71
NsS'L'
(lp2343
g2303
ag2306
asg73
(lp2344
(iGraph
Triangle
p2345
(dp2346
g77
(lp2347
g2303
ag2306
ag2309
asg79
(lp2348
g2341
a(iGraph
Edge
p2349
(dp2350
g50
g51
sg71
NsS'L'
(lp2351
g2309
ag2303
asg73
(lp2352
g2345
asg297
I1
sba(iGraph
Edge
p2353
(dp2354
g50
g51
sg71
NsS'L'
(lp2355
g2306
ag2309
asg73
(lp2356
g2345
a(iGraph
Triangle
p2357
(dp2358
g77
(lp2359
g2306
ag2309
ag2312
asg79
(lp2360
g2353
a(iGraph
Edge
p2361
(dp2362
g50
g51
sg71
NsS'L'
(lp2363
g2312
ag2306
asg73
(lp2364
g2357
asg297
I1
sba(iGraph
Edge
p2365
(dp2366
g50
g51
sg71
NsS'L'
(lp2367
g2309
ag2312
asg73
(lp2368
g2357
asg297
I1
sbasbasg297
I1
sbasbasg297
I1
sba(iGraph
Edge
p2369
(dp2370
g50
g51
sg71
NsS'L'
(lp2371
g2318
ag2315
asg73
(lp2372
sg297
I1
sba(iGraph
Edge
p2373
(dp2374
g50
g51
sg71
NsS'L'
(lp2375
g2318
ag2297
asg73
(lp2376
(iGraph
Triangle
p2377
(dp2378
g77
(lp2379
g2318
ag2297
ag2327
asg79
(lp2380
g2373
a(iGraph
Edge
p2381
(dp2382
g50
g51
sg71
NsS'L'
(lp2383
g2318
ag2327
asg73
(lp2384
g2377
asg297
I1
sba(iGraph
Edge
p2385
(dp2386
g50
g51
sg71
NsS'L'
(lp2387
g2297
ag2327
asg73
(lp2388
g2377
asg297
I1
sbasbasg297
I1
sba(iGraph
Edge
p2389
(dp2390
g50
g51
sg71
NsS'L'
(lp2391
g2324
ag2321
asg73
(lp2392
sg297
I1
sba(iGraph
Edge
p2393
(dp2394
g50
g51
sg71
NsS'L'
(lp2395
g2312
ag2297
asg73
(lp2396
sg297
I1
sba(iGraph
Edge
p2397
(dp2398
g50
g51
sg71
NsS'L'
(lp2399
g2303
ag2300
asg73
(lp2400
sg297
I1
sbag2385
a(iGraph
Edge
p2401
(dp2402
g50
g51
sg71
NsS'L'
(lp2403
g2297
ag2324
asg73
(lp2404
sg297
I1
sbag2349
ag2353
a(iGraph
Edge
p2405
(dp2406
g50
g51
sg71
NsS'L'
(lp2407
g2297
ag2330
asg73
(lp2408
sg297
I1
sba(iGraph
Edge
p2409
(dp2410
g50
g51
sg71
NsS'L'
(lp2411
g2303
ag2315
asg73
(lp2412
sg297
I1
sba(iGraph
Edge
p2413
(dp2414
g50
g51
sg71
NsS'L'
(lp2415
g2318
ag2321
asg73
(lp2416
sg297
I1
sbag2381
a(iGraph
Edge
p2417
(dp2418
g50
g51
sg71
NsS'L'
(lp2419
g2291
ag2294
asg73
(lp2420
sg297
I1
sbag2365
ag2361
a(iGraph
Edge
p2421
(dp2422
g50
g51
sg71
NsS'L'
(lp2423
g2300
ag2321
asg73
(lp2424
sg297
I1
sba(iGraph
Edge
p2425
(dp2426
g50
g51
sg71
NsS'L'
(lp2427
g2294
ag2297
asg73
(lp2428
sg297
I1
sba(iGraph
Edge
p2429
(dp2430
g50
g51
sg71
NsS'L'
(lp2431
g2312
ag2315
asg73
(lp2432
sg297
I1
sba(iGraph
Edge
p2433
(dp2434
g50
g51
sg71
NsS'L'
(lp2435
g2303
ag2291
asg73
(lp2436
sg297
I1
sba(iGraph
Edge
p2437
(dp2438
g50
g51
sg71
NsS'L'
(lp2439
g2291
ag2327
asg73
(lp2440
sg297
I1
sbasg526
F4.5999999999999996
sg73
(lp2441
g2345
ag2377
ag2357
asba(iGraph
Graph
p2442
(dp2443
g4
(lp2444
(iGraph
Node
p2445
(dp2446
g8
(lp2447
(iGraph
Node
p2448
(dp2449
g8
(lp2450
g2445
a(iGraph
Node
p2451
(dp2452
g8
(lp2453
(iGraph
Node
p2454
(dp2455
g8
(lp2456
g2451
a(iGraph
Node
p2457
(dp2458
g8
(lp2459
g2454
ag2451
a(iGraph
Node
p2460
(dp2461
g8
(lp2462
(iGraph
Node
p2463
(dp2464
g8
(lp2465
(iGraph
Node
p2466
(dp2467
g8
(lp2468
g2463
a(iGraph
Node
p2469
(dp2470
g8
(lp2471
(iGraph
Node
p2472
(dp2473
g8
(lp2474
(iGraph
Node
p2475
(dp2476
g8
(lp2477
(iGraph
Node
p2478
(dp2479
g8
(lp2480
g2475
ag2445
a(iGraph
Node
p2481
(dp2482
g8
(lp2483
g2448
ag2460
ag2478
ag2472
asg49
Nsg50
g51
sS'r'
I5
sg52
I00
sg53
Nsg54
I11
sbag2469
asg49
Nsg50
g51
sS'r'
I5
sg52
I00
sg53
Nsg54
I13
sbag2472
asg49
Nsg50
g51
sS'r'
I5
sg52
I00
sg53
Nsg54
I4
sbag2469
ag2457
ag2481
asg49
Nsg50
g51
sS'r'
I5
sg52
I00
sg53
Nsg54
I9
sbag2448
a(iGraph
Node
p2484
(dp2485
g8
(lp2486
g2469
asg49
Nsg50
g51
sS'r'
I5
sg52
I00
sg53
Nsg54
I10
sbag2478
ag2466
asg49
Nsg50
g51
sS'r'
I5
sg52
I00
sg53
Nsg54
I5
sbasg49
Nsg50
g51
sS'r'
I5
sg52
I00
sg53
Nsg54
I3
sbag2460
asg49
Nsg50
g51
sS'r'
I5
sg52
I00
sg53
Nsg54
I12
sbag2481
a(iGraph
Node
p2487
(dp2488
g8
(lp2489
g2448
ag2460
asg49
Nsg50
g51
sS'r'
I5
sg52
I00
sg53
Nsg54
I7
sbag2457
ag2445
asg49
Nsg50
g51
sS'r'
I5
sg52
I00
sg53
Nsg54
I8
sbag2472
asg49
Nsg50
g51
sS'r'
I5
sg52
I00
sg53
Nsg54
I2
sbasg49
Nsg50
g51
sS'r'
I5
sg52
I00
sg53
Nsg54
I14
sbag2448
ag2457
asg49
Nsg50
g51
sS'r'
I5
sg52
I00
sg53
Nsg54
I1
sbag2487
ag2481
ag2469
asg49
Nsg50
g51
sS'r'
I5
sg52
I00
sg53
Nsg54
I6
sbag2478
ag2460
asg49
Nsg50
g51
sS'r'
I5
sg52
I00
sg53
Nsg54
I0
sbag2451
ag2457
ag2466
ag2475
ag2469
ag2448
ag2487
ag2460
ag2472
ag2484
ag2481
ag2463
ag2478
ag2454
asg58
I0
sg59
I0
sg60
Nsg61
I0
sg62
I15
sg63
I5
sg64
F4.7999999999999998
sg65
g66
sg67
(lp2490
(iGraph
Edge
p2491
(dp2492
g50
g51
sg71
NsS'L'
(lp2493
g2445
ag2448
asg73
(lp2494
sg297
I1
sba(iGraph
Edge
p2495
(dp2496
g50
g51
sg71
NsS'L'
(lp2497
g2451
ag2454
asg73
(lp2498
(iGraph
Triangle
p2499
(dp2500
g77
(lp2501
g2451
ag2454
ag2457
asg79
(lp2502
g2495
a(iGraph
Edge
p2503
(dp2504
g50
g51
sg71
NsS'L'
(lp2505
g2457
ag2451
asg73
(lp2506
g2499
asg297
I1
sba(iGraph
Edge
p2507
(dp2508
g50
g51
sg71
NsS'L'
(lp2509
g2454
ag2457
asg73
(lp2510
g2499
asg297
I1
sbasbasg297
I1
sba(iGraph
Edge
p2511
(dp2512
g50
g51
sg71
NsS'L'
(lp2513
g2466
ag2463
asg73
(lp2514
sg297
I1
sba(iGraph
Edge
p2515
(dp2516
g50
g51
sg71
NsS'L'
(lp2517
g2478
ag2475
asg73
(lp2518
sg297
I1
sbag2507
a(iGraph
Edge
p2519
(dp2520
g50
g51
sg71
NsS'L'
(lp2521
g2451
ag2448
asg73
(lp2522
sg297
I1
sba(iGraph
Edge
p2523
(dp2524
g50
g51
sg71
NsS'L'
(lp2525
g2445
ag2478
asg73
(lp2526
sg297
I1
sba(iGraph
Edge
p2527
(dp2528
g50
g51
sg71
NsS'L'
(lp2529
g2460
ag2463
asg73
(lp2530
sg297
I1
sbag2503
a(iGraph
Edge
p2531
(dp2532
g50
g51
sg71
NsS'L'
(lp2533
g2448
ag2487
asg73
(lp2534
sg297
I1
sba(iGraph
Edge
p2535
(dp2536
g50
g51
sg71
NsS'L'
(lp2537
g2475
ag2472
asg73
(lp2538
sg297
I1
sba(iGraph
Edge
p2539
(dp2540
g50
g51
sg71
NsS'L'
(lp2541
g2448
ag2481
asg73
(lp2542
sg297
I1
sba(iGraph
Edge
p2543
(dp2544
g50
g51
sg71
NsS'L'
(lp2545
g2472
ag2469
asg73
(lp2546
sg297
I1
sba(iGraph
Edge
p2547
(dp2548
g50
g51
sg71
NsS'L'
(lp2549
g2481
ag2460
asg73
(lp2550
sg297
I1
sba(iGraph
Edge
p2551
(dp2552
g50
g51
sg71
NsS'L'
(lp2553
g2460
ag2487
asg73
(lp2554
sg297
I1
sba(iGraph
Edge
p2555
(dp2556
g50
g51
sg71
NsS'L'
(lp2557
g2457
ag2460
asg73
(lp2558
sg297
I1
sba(iGraph
Edge
p2559
(dp2560
g50
g51
sg71
NsS'L'
(lp2561
g2448
ag2469
asg73
(lp2562
sg297
I1
sba(iGraph
Edge
p2563
(dp2564
g50
g51
sg71
NsS'L'
(lp2565
g2457
ag2472
asg73
(lp2566
sg297
I1
sba(iGraph
Edge
p2567
(dp2568
g50
g51
sg71
NsS'L'
(lp2569
g2460
ag2445
asg73
(lp2570
sg297
I1
sba(iGraph
Edge
p2571
(dp2572
g50
g51
sg71
NsS'L'
(lp2573
g2481
ag2478
asg73
(lp2574
sg297
I1
sba(iGraph
Edge
p2575
(dp2576
g50
g51
sg71
NsS'L'
(lp2577
g2484
ag2469
asg73
(lp2578
sg297
I1
sba(iGraph
Edge
p2579
(dp2580
g50
g51
sg71
NsS'L'
(lp2581
g2478
ag2469
asg73
(lp2582
sg297
I1
sba(iGraph
Edge
p2583
(dp2584
g50
g51
sg71
NsS'L'
(lp2585
g2472
ag2481
asg73
(lp2586
sg297
I1
sba(iGraph
Edge
p2587
(dp2588
g50
g51
sg71
NsS'L'
(lp2589
g2466
ag2469
asg73
(lp2590
sg297
I1
sbasg526
F4.7999999999999998
sg73
(lp2591
g2499
asba.