(lp1
(iGraph
Graph
p2
(dp3
S'nodeList'
p4
(lp5
(iGraph
Node
p6
(dp7
S'neighbors'
p8
(lp9
sS'center'
p10
NsS'color'
p11
S'black'
p12
sS'r'
I5
sS'visited'
p13
I00
sS'circle'
p14
NsS'ID'
p15
I0
sba(iGraph
Node
p16
(dp17
g8
(lp18
sg10
Nsg11
g12
sS'r'
I5
sg13
I00
sg14
Nsg15
I1
sba(iGraph
Node
p19
(dp20
g8
(lp21
sg10
Nsg11
g12
sS'r'
I5
sg13
I00
sg14
Nsg15
I2
sba(iGraph
Node
p22
(dp23
g8
(lp24
sg10
Nsg11
g12
sS'r'
I5
sg13
I00
sg14
Nsg15
I3
sba(iGraph
Node
p25
(dp26
g8
(lp27
sg10
Nsg11
g12
sS'r'
I5
sg13
I00
sg14
Nsg15
I4
sba(iGraph
Node
p28
(dp29
g8
(lp30
sg10
Nsg11
g12
sS'r'
I5
sg13
I00
sg14
Nsg15
I5
sba(iGraph
Node
p31
(dp32
g8
(lp33
sg10
Nsg11
g12
sS'r'
I5
sg13
I00
sg14
Nsg15
I6
sba(iGraph
Node
p34
(dp35
g8
(lp36
sg10
Nsg11
g12
sS'r'
I5
sg13
I00
sg14
Nsg15
I7
sba(iGraph
Node
p37
(dp38
g8
(lp39
sg10
Nsg11
g12
sS'r'
I5
sg13
I00
sg14
Nsg15
I8
sba(iGraph
Node
p40
(dp41
g8
(lp42
sg10
Nsg11
g12
sS'r'
I5
sg13
I00
sg14
Nsg15
I9
sba(iGraph
Node
p43
(dp44
g8
(lp45
sg10
Nsg11
g12
sS'r'
I5
sg13
I00
sg14
Nsg15
I10
sba(iGraph
Node
p46
(dp47
g8
(lp48
sg10
Nsg11
g12
sS'r'
I5
sg13
I00
sg14
Nsg15
I11
sba(iGraph
Node
p49
(dp50
g8
(lp51
sg10
Nsg11
g12
sS'r'
I5
sg13
I00
sg14
Nsg15
I12
sba(iGraph
Node
p52
(dp53
g8
(lp54
sg10
Nsg11
g12
sS'r'
I5
sg13
I00
sg14
Nsg15
I13
sba(iGraph
Node
p55
(dp56
g8
(lp57
sg10
Nsg11
g12
sS'r'
I5
sg13
I00
sg14
Nsg15
I14
sbasS'verbose'
p58
I0
sS'cCount'
p59
I0
sS'win'
p60
NsS'strat'
p61
I0
sS'nNodes'
p62
I15
sS'intervals'
p63
I5
sS'unit'
p64
I0
sS'edgeList'
p65
(lp66
sS'check'
p67
I0
sS'triangles'
p68
(lp69
sba(iGraph
Graph
p70
(dp71
g4
(lp72
(iGraph
Node
p73
(dp74
g8
(lp75
sg10
Nsg11
g12
sS'r'
I5
sg13
I00
sg14
Nsg15
I0
sba(iGraph
Node
p76
(dp77
g8
(lp78
sg10
Nsg11
g12
sS'r'
I5
sg13
I00
sg14
Nsg15
I1
sba(iGraph
Node
p79
(dp80
g8
(lp81
sg10
Nsg11
g12
sS'r'
I5
sg13
I00
sg14
Nsg15
I2
sba(iGraph
Node
p82
(dp83
g8
(lp84
sg10
Nsg11
g12
sS'r'
I5
sg13
I00
sg14
Nsg15
I3
sba(iGraph
Node
p85
(dp86
g8
(lp87
sg10
Nsg11
g12
sS'r'
I5
sg13
I00
sg14
Nsg15
I4
sba(iGraph
Node
p88
(dp89
g8
(lp90
sg10
Nsg11
g12
sS'r'
I5
sg13
I00
sg14
Nsg15
I5
sba(iGraph
Node
p91
(dp92
g8
(lp93
sg10
Nsg11
g12
sS'r'
I5
sg13
I00
sg14
Nsg15
I6
sba(iGraph
Node
p94
(dp95
g8
(lp96
sg10
Nsg11
g12
sS'r'
I5
sg13
I00
sg14
Nsg15
I7
sba(iGraph
Node
p97
(dp98
g8
(lp99
sg10
Nsg11
g12
sS'r'
I5
sg13
I00
sg14
Nsg15
I8
sba(iGraph
Node
p100
(dp101
g8
(lp102
sg10
Nsg11
g12
sS'r'
I5
sg13
I00
sg14
Nsg15
I9
sba(iGraph
Node
p103
(dp104
g8
(lp105
sg10
Nsg11
g12
sS'r'
I5
sg13
I00
sg14
Nsg15
I10
sba(iGraph
Node
p106
(dp107
g8
(lp108
sg10
Nsg11
g12
sS'r'
I5
sg13
I00
sg14
Nsg15
I11
sba(iGraph
Node
p109
(dp110
g8
(lp111
sg10
Nsg11
g12
sS'r'
I5
sg13
I00
sg14
Nsg15
I12
sba(iGraph
Node
p112
(dp113
g8
(lp114
sg10
Nsg11
g12
sS'r'
I5
sg13
I00
sg14
Nsg15
I13
sba(iGraph
Node
p115
(dp116
g8
(lp117
sg10
Nsg11
g12
sS'r'
I5
sg13
I00
sg14
Nsg15
I14
sbasg58
I0
sg59
I0
sg60
Nsg61
I0
sg62
I15
sg63
I5
sg64
I0
sg65
(lp118
sg67
I0
sg68
(lp119
sba(iGraph
Graph
p120
(dp121
g4
(lp122
(iGraph
Node
p123
(dp124
g8
(lp125
sg10
Nsg11
g12
sS'r'
I5
sg13
I00
sg14
Nsg15
I0
sba(iGraph
Node
p126
(dp127
g8
(lp128
sg10
Nsg11
g12
sS'r'
I5
sg13
I00
sg14
Nsg15
I1
sba(iGraph
Node
p129
(dp130
g8
(lp131
sg10
Nsg11
g12
sS'r'
I5
sg13
I00
sg14
Nsg15
I2
sba(iGraph
Node
p132
(dp133
g8
(lp134
sg10
Nsg11
g12
sS'r'
I5
sg13
I00
sg14
Nsg15
I3
sba(iGraph
Node
p135
(dp136
g8
(lp137
sg10
Nsg11
g12
sS'r'
I5
sg13
I00
sg14
Nsg15
I4
sba(iGraph
Node
p138
(dp139
g8
(lp140
sg10
Nsg11
g12
sS'r'
I5
sg13
I00
sg14
Nsg15
I5
sba(iGraph
Node
p141
(dp142
g8
(lp143
sg10
Nsg11
g12
sS'r'
I5
sg13
I00
sg14
Nsg15
I6
sba(iGraph
Node
p144
(dp145
g8
(lp146
sg10
Nsg11
g12
sS'r'
I5
sg13
I00
sg14
Nsg15
I7
sba(iGraph
Node
p147
(dp148
g8
(lp149
sg10
Nsg11
g12
sS'r'
I5
sg13
I00
sg14
Nsg15
I8
sba(iGraph
Node
p150
(dp151
g8
(lp152
sg10
Nsg11
g12
sS'r'
I5
sg13
I00
sg14
Nsg15
I9
sba(iGraph
Node
p153
(dp154
g8
(lp155
sg10
Nsg11
g12
sS'r'
I5
sg13
I00
sg14
Nsg15
I10
sba(iGraph
Node
p156
(dp157
g8
(lp158
sg10
Nsg11
g12
sS'r'
I5
sg13
I00
sg14
Nsg15
I11
sba(iGraph
Node
p159
(dp160
g8
(lp161
sg10
Nsg11
g12
sS'r'
I5
sg13
I00
sg14
Nsg15
I12
sba(iGraph
Node
p162
(dp163
g8
(lp164
sg10
Nsg11
g12
sS'r'
I5
sg13
I00
sg14
Nsg15
I13
sba(iGraph
Node
p165
(dp166
g8
(lp167
sg10
Nsg11
g12
sS'r'
I5
sg13
I00
sg14
Nsg15
I14
sbasg58
I0
sg59
I0
sg60
Nsg61
I0
sg62
I15
sg63
I5
sg64
I0
sg65
(lp168
sg67
I0
sg68
(lp169
sba(iGraph
Graph
p170
(dp171
g4
(lp172
(iGraph
Node
p173
(dp174
g8
(lp175
sg10
Nsg11
g12
sS'r'
I5
sg13
I00
sg14
Nsg15
I0
sba(iGraph
Node
p176
(dp177
g8
(lp178
sg10
Nsg11
g12
sS'r'
I5
sg13
I00
sg14
Nsg15
I1
sba(iGraph
Node
p179
(dp180
g8
(lp181
sg10
Nsg11
g12
sS'r'
I5
sg13
I00
sg14
Nsg15
I2
sba(iGraph
Node
p182
(dp183
g8
(lp184
sg10
Nsg11
g12
sS'r'
I5
sg13
I00
sg14
Nsg15
I3
sba(iGraph
Node
p185
(dp186
g8
(lp187
sg10
Nsg11
g12
sS'r'
I5
sg13
I00
sg14
Nsg15
I4
sba(iGraph
Node
p188
(dp189
g8
(lp190
sg10
Nsg11
g12
sS'r'
I5
sg13
I00
sg14
Nsg15
I5
sba(iGraph
Node
p191
(dp192
g8
(lp193
sg10
Nsg11
g12
sS'r'
I5
sg13
I00
sg14
Nsg15
I6
sba(iGraph
Node
p194
(dp195
g8
(lp196
sg10
Nsg11
g12
sS'r'
I5
sg13
I00
sg14
Nsg15
I7
sba(iGraph
Node
p197
(dp198
g8
(lp199
sg10
Nsg11
g12
sS'r'
I5
sg13
I00
sg14
Nsg15
I8
sba(iGraph
Node
p200
(dp201
g8
(lp202
sg10
Nsg11
g12
sS'r'
I5
sg13
I00
sg14
Nsg15
I9
sba(iGraph
Node
p203
(dp204
g8
(lp205
sg10
Nsg11
g12
sS'r'
I5
sg13
I00
sg14
Nsg15
I10
sba(iGraph
Node
p206
(dp207
g8
(lp208
sg10
Nsg11
g12
sS'r'
I5
sg13
I00
sg14
Nsg15
I11
sba(iGraph
Node
p209
(dp210
g8
(lp211
sg10
Nsg11
g12
sS'r'
I5
sg13
I00
sg14
Nsg15
I12
sba(iGraph
Node
p212
(dp213
g8
(lp214
sg10
Nsg11
g12
sS'r'
I5
sg13
I00
sg14
Nsg15
I13
sba(iGraph
Node
p215
(dp216
g8
(lp217
sg10
Nsg11
g12
sS'r'
I5
sg13
I00
sg14
Nsg15
I14
sbasg58
I0
sg59
I0
sg60
Nsg61
I0
sg62
I15
sg63
I5
sg64
I0
sg65
(lp218
sg67
I0
sg68
(lp219
sba(iGraph
Graph
p220
(dp221
g4
(lp222
(iGraph
Node
p223
(dp224
g8
(lp225
sg10
Nsg11
g12
sS'r'
I5
sg13
I00
sg14
Nsg15
I0
sba(iGraph
Node
p226
(dp227
g8
(lp228
sg10
Nsg11
g12
sS'r'
I5
sg13
I00
sg14
Nsg15
I1
sba(iGraph
Node
p229
(dp230
g8
(lp231
sg10
Nsg11
g12
sS'r'
I5
sg13
I00
sg14
Nsg15
I2
sba(iGraph
Node
p232
(dp233
g8
(lp234
sg10
Nsg11
g12
sS'r'
I5
sg13
I00
sg14
Nsg15
I3
sba(iGraph
Node
p235
(dp236
g8
(lp237
sg10
Nsg11
g12
sS'r'
I5
sg13
I00
sg14
Nsg15
I4
sba(iGraph
Node
p238
(dp239
g8
(lp240
sg10
Nsg11
g12
sS'r'
I5
sg13
I00
sg14
Nsg15
I5
sba(iGraph
Node
p241
(dp242
g8
(lp243
sg10
Nsg11
g12
sS'r'
I5
sg13
I00
sg14
Nsg15
I6
sba(iGraph
Node
p244
(dp245
g8
(lp246
sg10
Nsg11
g12
sS'r'
I5
sg13
I00
sg14
Nsg15
I7
sba(iGraph
Node
p247
(dp248
g8
(lp249
sg10
Nsg11
g12
sS'r'
I5
sg13
I00
sg14
Nsg15
I8
sba(iGraph
Node
p250
(dp251
g8
(lp252
sg10
Nsg11
g12
sS'r'
I5
sg13
I00
sg14
Nsg15
I9
sba(iGraph
Node
p253
(dp254
g8
(lp255
sg10
Nsg11
g12
sS'r'
I5
sg13
I00
sg14
Nsg15
I10
sba(iGraph
Node
p256
(dp257
g8
(lp258
sg10
Nsg11
g12
sS'r'
I5
sg13
I00
sg14
Nsg15
I11
sba(iGraph
Node
p259
(dp260
g8
(lp261
sg10
Nsg11
g12
sS'r'
I5
sg13
I00
sg14
Nsg15
I12
sba(iGraph
Node
p262
(dp263
g8
(lp264
sg10
Nsg11
g12
sS'r'
I5
sg13
I00
sg14
Nsg15
I13
sba(iGraph
Node
p265
(dp266
g8
(lp267
sg10
Nsg11
g12
sS'r'
I5
sg13
I00
sg14
Nsg15
I14
sbasg58
I0
sg59
I0
sg60
Nsg61
I0
sg62
I15
sg63
I5
sg64
I0
sg65
(lp268
sg67
I0
sg68
(lp269
sba(iGraph
Graph
p270
(dp271
g4
(lp272
(iGraph
Node
p273
(dp274
g8
(lp275
sg10
Nsg11
g12
sS'r'
I5
sg13
I00
sg14
Nsg15
I0
sba(iGraph
Node
p276
(dp277
g8
(lp278
sg10
Nsg11
g12
sS'r'
I5
sg13
I00
sg14
Nsg15
I1
sba(iGraph
Node
p279
(dp280
g8
(lp281
sg10
Nsg11
g12
sS'r'
I5
sg13
I00
sg14
Nsg15
I2
sba(iGraph
Node
p282
(dp283
g8
(lp284
sg10
Nsg11
g12
sS'r'
I5
sg13
I00
sg14
Nsg15
I3
sba(iGraph
Node
p285
(dp286
g8
(lp287
sg10
Nsg11
g12
sS'r'
I5
sg13
I00
sg14
Nsg15
I4
sba(iGraph
Node
p288
(dp289
g8
(lp290
sg10
Nsg11
g12
sS'r'
I5
sg13
I00
sg14
Nsg15
I5
sba(iGraph
Node
p291
(dp292
g8
(lp293
sg10
Nsg11
g12
sS'r'
I5
sg13
I00
sg14
Nsg15
I6
sba(iGraph
Node
p294
(dp295
g8
(lp296
sg10
Nsg11
g12
sS'r'
I5
sg13
I00
sg14
Nsg15
I7
sba(iGraph
Node
p297
(dp298
g8
(lp299
sg10
Nsg11
g12
sS'r'
I5
sg13
I00
sg14
Nsg15
I8
sba(iGraph
Node
p300
(dp301
g8
(lp302
sg10
Nsg11
g12
sS'r'
I5
sg13
I00
sg14
Nsg15
I9
sba(iGraph
Node
p303
(dp304
g8
(lp305
sg10
Nsg11
g12
sS'r'
I5
sg13
I00
sg14
Nsg15
I10
sba(iGraph
Node
p306
(dp307
g8
(lp308
sg10
Nsg11
g12
sS'r'
I5
sg13
I00
sg14
Nsg15
I11
sba(iGraph
Node
p309
(dp310
g8
(lp311
sg10
Nsg11
g12
sS'r'
I5
sg13
I00
sg14
Nsg15
I12
sba(iGraph
Node
p312
(dp313
g8
(lp314
sg10
Nsg11
g12
sS'r'
I5
sg13
I00
sg14
Nsg15
I13
sba(iGraph
Node
p315
(dp316
g8
(lp317
sg10
Nsg11
g12
sS'r'
I5
sg13
I00
sg14
Nsg15
I14
sbasg58
I0
sg59
I0
sg60
Nsg61
I0
sg62
I15
sg63
I5
sg64
I0
sg65
(lp318
sg67
I0
sg68
(lp319
sba(iGraph
Graph
p320
(dp321
g4
(lp322
(iGraph
Node
p323
(dp324
g8
(lp325
sg10
Nsg11
g12
sS'r'
I5
sg13
I00
sg14
Nsg15
I0
sba(iGraph
Node
p326
(dp327
g8
(lp328
sg10
Nsg11
g12
sS'r'
I5
sg13
I00
sg14
Nsg15
I1
sba(iGraph
Node
p329
(dp330
g8
(lp331
sg10
Nsg11
g12
sS'r'
I5
sg13
I00
sg14
Nsg15
I2
sba(iGraph
Node
p332
(dp333
g8
(lp334
sg10
Nsg11
g12
sS'r'
I5
sg13
I00
sg14
Nsg15
I3
sba(iGraph
Node
p335
(dp336
g8
(lp337
sg10
Nsg11
g12
sS'r'
I5
sg13
I00
sg14
Nsg15
I4
sba(iGraph
Node
p338
(dp339
g8
(lp340
sg10
Nsg11
g12
sS'r'
I5
sg13
I00
sg14
Nsg15
I5
sba(iGraph
Node
p341
(dp342
g8
(lp343
sg10
Nsg11
g12
sS'r'
I5
sg13
I00
sg14
Nsg15
I6
sba(iGraph
Node
p344
(dp345
g8
(lp346
sg10
Nsg11
g12
sS'r'
I5
sg13
I00
sg14
Nsg15
I7
sba(iGraph
Node
p347
(dp348
g8
(lp349
sg10
Nsg11
g12
sS'r'
I5
sg13
I00
sg14
Nsg15
I8
sba(iGraph
Node
p350
(dp351
g8
(lp352
sg10
Nsg11
g12
sS'r'
I5
sg13
I00
sg14
Nsg15
I9
sba(iGraph
Node
p353
(dp354
g8
(lp355
sg10
Nsg11
g12
sS'r'
I5
sg13
I00
sg14
Nsg15
I10
sba(iGraph
Node
p356
(dp357
g8
(lp358
sg10
Nsg11
g12
sS'r'
I5
sg13
I00
sg14
Nsg15
I11
sba(iGraph
Node
p359
(dp360
g8
(lp361
sg10
Nsg11
g12
sS'r'
I5
sg13
I00
sg14
Nsg15
I12
sba(iGraph
Node
p362
(dp363
g8
(lp364
sg10
Nsg11
g12
sS'r'
I5
sg13
I00
sg14
Nsg15
I13
sba(iGraph
Node
p365
(dp366
g8
(lp367
sg10
Nsg11
g12
sS'r'
I5
sg13
I00
sg14
Nsg15
I14
sbasg58
I0
sg59
I0
sg60
Nsg61
I0
sg62
I15
sg63
I5
sg64
I0
sg65
(lp368
sg67
I0
sg68
(lp369
sba(iGraph
Graph
p370
(dp371
g4
(lp372
(iGraph
Node
p373
(dp374
g8
(lp375
sg10
Nsg11
g12
sS'r'
I5
sg13
I00
sg14
Nsg15
I0
sba(iGraph
Node
p376
(dp377
g8
(lp378
sg10
Nsg11
g12
sS'r'
I5
sg13
I00
sg14
Nsg15
I1
sba(iGraph
Node
p379
(dp380
g8
(lp381
sg10
Nsg11
g12
sS'r'
I5
sg13
I00
sg14
Nsg15
I2
sba(iGraph
Node
p382
(dp383
g8
(lp384
sg10
Nsg11
g12
sS'r'
I5
sg13
I00
sg14
Nsg15
I3
sba(iGraph
Node
p385
(dp386
g8
(lp387
sg10
Nsg11
g12
sS'r'
I5
sg13
I00
sg14
Nsg15
I4
sba(iGraph
Node
p388
(dp389
g8
(lp390
sg10
Nsg11
g12
sS'r'
I5
sg13
I00
sg14
Nsg15
I5
sba(iGraph
Node
p391
(dp392
g8
(lp393
sg10
Nsg11
g12
sS'r'
I5
sg13
I00
sg14
Nsg15
I6
sba(iGraph
Node
p394
(dp395
g8
(lp396
sg10
Nsg11
g12
sS'r'
I5
sg13
I00
sg14
Nsg15
I7
sba(iGraph
Node
p397
(dp398
g8
(lp399
sg10
Nsg11
g12
sS'r'
I5
sg13
I00
sg14
Nsg15
I8
sba(iGraph
Node
p400
(dp401
g8
(lp402
sg10
Nsg11
g12
sS'r'
I5
sg13
I00
sg14
Nsg15
I9
sba(iGraph
Node
p403
(dp404
g8
(lp405
sg10
Nsg11
g12
sS'r'
I5
sg13
I00
sg14
Nsg15
I10
sba(iGraph
Node
p406
(dp407
g8
(lp408
sg10
Nsg11
g12
sS'r'
I5
sg13
I00
sg14
Nsg15
I11
sba(iGraph
Node
p409
(dp410
g8
(lp411
sg10
Nsg11
g12
sS'r'
I5
sg13
I00
sg14
Nsg15
I12
sba(iGraph
Node
p412
(dp413
g8
(lp414
sg10
Nsg11
g12
sS'r'
I5
sg13
I00
sg14
Nsg15
I13
sba(iGraph
Node
p415
(dp416
g8
(lp417
sg10
Nsg11
g12
sS'r'
I5
sg13
I00
sg14
Nsg15
I14
sbasg58
I0
sg59
I0
sg60
Nsg61
I0
sg62
I15
sg63
I5
sg64
I0
sg65
(lp418
sg67
I0
sg68
(lp419
sba(iGraph
Graph
p420
(dp421
g4
(lp422
(iGraph
Node
p423
(dp424
g8
(lp425
sg10
Nsg11
g12
sS'r'
I5
sg13
I00
sg14
Nsg15
I0
sba(iGraph
Node
p426
(dp427
g8
(lp428
sg10
Nsg11
g12
sS'r'
I5
sg13
I00
sg14
Nsg15
I1
sba(iGraph
Node
p429
(dp430
g8
(lp431
sg10
Nsg11
g12
sS'r'
I5
sg13
I00
sg14
Nsg15
I2
sba(iGraph
Node
p432
(dp433
g8
(lp434
sg10
Nsg11
g12
sS'r'
I5
sg13
I00
sg14
Nsg15
I3
sba(iGraph
Node
p435
(dp436
g8
(lp437
sg10
Nsg11
g12
sS'r'
I5
sg13
I00
sg14
Nsg15
I4
sba(iGraph
Node
p438
(dp439
g8
(lp440
sg10
Nsg11
g12
sS'r'
I5
sg13
I00
sg14
Nsg15
I5
sba(iGraph
Node
p441
(dp442
g8
(lp443
sg10
Nsg11
g12
sS'r'
I5
sg13
I00
sg14
Nsg15
I6
sba(iGraph
Node
p444
(dp445
g8
(lp446
sg10
Nsg11
g12
sS'r'
I5
sg13
I00
sg14
Nsg15
I7
sba(iGraph
Node
p447
(dp448
g8
(lp449
sg10
Nsg11
g12
sS'r'
I5
sg13
I00
sg14
Nsg15
I8
sba(iGraph
Node
p450
(dp451
g8
(lp452
sg10
Nsg11
g12
sS'r'
I5
sg13
I00
sg14
Nsg15
I9
sba(iGraph
Node
p453
(dp454
g8
(lp455
sg10
Nsg11
g12
sS'r'
I5
sg13
I00
sg14
Nsg15
I10
sba(iGraph
Node
p456
(dp457
g8
(lp458
sg10
Nsg11
g12
sS'r'
I5
sg13
I00
sg14
Nsg15
I11
sba(iGraph
Node
p459
(dp460
g8
(lp461
sg10
Nsg11
g12
sS'r'
I5
sg13
I00
sg14
Nsg15
I12
sba(iGraph
Node
p462
(dp463
g8
(lp464
sg10
Nsg11
g12
sS'r'
I5
sg13
I00
sg14
Nsg15
I13
sba(iGraph
Node
p465
(dp466
g8
(lp467
sg10
Nsg11
g12
sS'r'
I5
sg13
I00
sg14
Nsg15
I14
sbasg58
I0
sg59
I0
sg60
Nsg61
I0
sg62
I15
sg63
I5
sg64
I0
sg65
(lp468
sg67
I0
sg68
(lp469
sba(iGraph
Graph
p470
(dp471
g4
(lp472
(iGraph
Node
p473
(dp474
g8
(lp475
sg10
Nsg11
g12
sS'r'
I5
sg13
I00
sg14
Nsg15
I0
sba(iGraph
Node
p476
(dp477
g8
(lp478
sg10
Nsg11
g12
sS'r'
I5
sg13
I00
sg14
Nsg15
I1
sba(iGraph
Node
p479
(dp480
g8
(lp481
sg10
Nsg11
g12
sS'r'
I5
sg13
I00
sg14
Nsg15
I2
sba(iGraph
Node
p482
(dp483
g8
(lp484
sg10
Nsg11
g12
sS'r'
I5
sg13
I00
sg14
Nsg15
I3
sba(iGraph
Node
p485
(dp486
g8
(lp487
sg10
Nsg11
g12
sS'r'
I5
sg13
I00
sg14
Nsg15
I4
sba(iGraph
Node
p488
(dp489
g8
(lp490
sg10
Nsg11
g12
sS'r'
I5
sg13
I00
sg14
Nsg15
I5
sba(iGraph
Node
p491
(dp492
g8
(lp493
sg10
Nsg11
g12
sS'r'
I5
sg13
I00
sg14
Nsg15
I6
sba(iGraph
Node
p494
(dp495
g8
(lp496
sg10
Nsg11
g12
sS'r'
I5
sg13
I00
sg14
Nsg15
I7
sba(iGraph
Node
p497
(dp498
g8
(lp499
sg10
Nsg11
g12
sS'r'
I5
sg13
I00
sg14
Nsg15
I8
sba(iGraph
Node
p500
(dp501
g8
(lp502
sg10
Nsg11
g12
sS'r'
I5
sg13
I00
sg14
Nsg15
I9
sba(iGraph
Node
p503
(dp504
g8
(lp505
sg10
Nsg11
g12
sS'r'
I5
sg13
I00
sg14
Nsg15
I10
sba(iGraph
Node
p506
(dp507
g8
(lp508
sg10
Nsg11
g12
sS'r'
I5
sg13
I00
sg14
Nsg15
I11
sba(iGraph
Node
p509
(dp510
g8
(lp511
sg10
Nsg11
g12
sS'r'
I5
sg13
I00
sg14
Nsg15
I12
sba(iGraph
Node
p512
(dp513
g8
(lp514
sg10
Nsg11
g12
sS'r'
I5
sg13
I00
sg14
Nsg15
I13
sba(iGraph
Node
p515
(dp516
g8
(lp517
sg10
Nsg11
g12
sS'r'
I5
sg13
I00
sg14
Nsg15
I14
sbasg58
I0
sg59
I0
sg60
Nsg61
I0
sg62
I15
sg63
I5
sg64
I0
sg65
(lp518
sg67
I0
sg68
(lp519
sba(iGraph
Graph
p520
(dp521
g4
(lp522
(iGraph
Node
p523
(dp524
g8
(lp525
sg10
Nsg11
g12
sS'r'
I5
sg13
I00
sg14
Nsg15
I0
sba(iGraph
Node
p526
(dp527
g8
(lp528
sg10
Nsg11
g12
sS'r'
I5
sg13
I00
sg14
Nsg15
I1
sba(iGraph
Node
p529
(dp530
g8
(lp531
sg10
Nsg11
g12
sS'r'
I5
sg13
I00
sg14
Nsg15
I2
sba(iGraph
Node
p532
(dp533
g8
(lp534
sg10
Nsg11
g12
sS'r'
I5
sg13
I00
sg14
Nsg15
I3
sba(iGraph
Node
p535
(dp536
g8
(lp537
sg10
Nsg11
g12
sS'r'
I5
sg13
I00
sg14
Nsg15
I4
sba(iGraph
Node
p538
(dp539
g8
(lp540
sg10
Nsg11
g12
sS'r'
I5
sg13
I00
sg14
Nsg15
I5
sba(iGraph
Node
p541
(dp542
g8
(lp543
sg10
Nsg11
g12
sS'r'
I5
sg13
I00
sg14
Nsg15
I6
sba(iGraph
Node
p544
(dp545
g8
(lp546
sg10
Nsg11
g12
sS'r'
I5
sg13
I00
sg14
Nsg15
I7
sba(iGraph
Node
p547
(dp548
g8
(lp549
sg10
Nsg11
g12
sS'r'
I5
sg13
I00
sg14
Nsg15
I8
sba(iGraph
Node
p550
(dp551
g8
(lp552
sg10
Nsg11
g12
sS'r'
I5
sg13
I00
sg14
Nsg15
I9
sba(iGraph
Node
p553
(dp554
g8
(lp555
sg10
Nsg11
g12
sS'r'
I5
sg13
I00
sg14
Nsg15
I10
sba(iGraph
Node
p556
(dp557
g8
(lp558
sg10
Nsg11
g12
sS'r'
I5
sg13
I00
sg14
Nsg15
I11
sba(iGraph
Node
p559
(dp560
g8
(lp561
sg10
Nsg11
g12
sS'r'
I5
sg13
I00
sg14
Nsg15
I12
sba(iGraph
Node
p562
(dp563
g8
(lp564
sg10
Nsg11
g12
sS'r'
I5
sg13
I00
sg14
Nsg15
I13
sba(iGraph
Node
p565
(dp566
g8
(lp567
sg10
Nsg11
g12
sS'r'
I5
sg13
I00
sg14
Nsg15
I14
sbasg58
I0
sg59
I0
sg60
Nsg61
I0
sg62
I15
sg63
I5
sg64
I0
sg65
(lp568
sg67
I0
sg68
(lp569
sba(iGraph
Graph
p570
(dp571
g4
(lp572
(iGraph
Node
p573
(dp574
g8
(lp575
sg10
Nsg11
g12
sS'r'
I5
sg13
I00
sg14
Nsg15
I0
sba(iGraph
Node
p576
(dp577
g8
(lp578
sg10
Nsg11
g12
sS'r'
I5
sg13
I00
sg14
Nsg15
I1
sba(iGraph
Node
p579
(dp580
g8
(lp581
sg10
Nsg11
g12
sS'r'
I5
sg13
I00
sg14
Nsg15
I2
sba(iGraph
Node
p582
(dp583
g8
(lp584
sg10
Nsg11
g12
sS'r'
I5
sg13
I00
sg14
Nsg15
I3
sba(iGraph
Node
p585
(dp586
g8
(lp587
sg10
Nsg11
g12
sS'r'
I5
sg13
I00
sg14
Nsg15
I4
sba(iGraph
Node
p588
(dp589
g8
(lp590
sg10
Nsg11
g12
sS'r'
I5
sg13
I00
sg14
Nsg15
I5
sba(iGraph
Node
p591
(dp592
g8
(lp593
sg10
Nsg11
g12
sS'r'
I5
sg13
I00
sg14
Nsg15
I6
sba(iGraph
Node
p594
(dp595
g8
(lp596
sg10
Nsg11
g12
sS'r'
I5
sg13
I00
sg14
Nsg15
I7
sba(iGraph
Node
p597
(dp598
g8
(lp599
sg10
Nsg11
g12
sS'r'
I5
sg13
I00
sg14
Nsg15
I8
sba(iGraph
Node
p600
(dp601
g8
(lp602
sg10
Nsg11
g12
sS'r'
I5
sg13
I00
sg14
Nsg15
I9
sba(iGraph
Node
p603
(dp604
g8
(lp605
sg10
Nsg11
g12
sS'r'
I5
sg13
I00
sg14
Nsg15
I10
sba(iGraph
Node
p606
(dp607
g8
(lp608
sg10
Nsg11
g12
sS'r'
I5
sg13
I00
sg14
Nsg15
I11
sba(iGraph
Node
p609
(dp610
g8
(lp611
sg10
Nsg11
g12
sS'r'
I5
sg13
I00
sg14
Nsg15
I12
sba(iGraph
Node
p612
(dp613
g8
(lp614
sg10
Nsg11
g12
sS'r'
I5
sg13
I00
sg14
Nsg15
I13
sba(iGraph
Node
p615
(dp616
g8
(lp617
sg10
Nsg11
g12
sS'r'
I5
sg13
I00
sg14
Nsg15
I14
sbasg58
I0
sg59
I0
sg60
Nsg61
I0
sg62
I15
sg63
I5
sg64
I0
sg65
(lp618
sg67
I0
sg68
(lp619
sba(iGraph
Graph
p620
(dp621
g4
(lp622
(iGraph
Node
p623
(dp624
g8
(lp625
sg10
Nsg11
g12
sS'r'
I5
sg13
I00
sg14
Nsg15
I0
sba(iGraph
Node
p626
(dp627
g8
(lp628
sg10
Nsg11
g12
sS'r'
I5
sg13
I00
sg14
Nsg15
I1
sba(iGraph
Node
p629
(dp630
g8
(lp631
sg10
Nsg11
g12
sS'r'
I5
sg13
I00
sg14
Nsg15
I2
sba(iGraph
Node
p632
(dp633
g8
(lp634
sg10
Nsg11
g12
sS'r'
I5
sg13
I00
sg14
Nsg15
I3
sba(iGraph
Node
p635
(dp636
g8
(lp637
sg10
Nsg11
g12
sS'r'
I5
sg13
I00
sg14
Nsg15
I4
sba(iGraph
Node
p638
(dp639
g8
(lp640
sg10
Nsg11
g12
sS'r'
I5
sg13
I00
sg14
Nsg15
I5
sba(iGraph
Node
p641
(dp642
g8
(lp643
sg10
Nsg11
g12
sS'r'
I5
sg13
I00
sg14
Nsg15
I6
sba(iGraph
Node
p644
(dp645
g8
(lp646
sg10
Nsg11
g12
sS'r'
I5
sg13
I00
sg14
Nsg15
I7
sba(iGraph
Node
p647
(dp648
g8
(lp649
sg10
Nsg11
g12
sS'r'
I5
sg13
I00
sg14
Nsg15
I8
sba(iGraph
Node
p650
(dp651
g8
(lp652
sg10
Nsg11
g12
sS'r'
I5
sg13
I00
sg14
Nsg15
I9
sba(iGraph
Node
p653
(dp654
g8
(lp655
sg10
Nsg11
g12
sS'r'
I5
sg13
I00
sg14
Nsg15
I10
sba(iGraph
Node
p656
(dp657
g8
(lp658
sg10
Nsg11
g12
sS'r'
I5
sg13
I00
sg14
Nsg15
I11
sba(iGraph
Node
p659
(dp660
g8
(lp661
sg10
Nsg11
g12
sS'r'
I5
sg13
I00
sg14
Nsg15
I12
sba(iGraph
Node
p662
(dp663
g8
(lp664
sg10
Nsg11
g12
sS'r'
I5
sg13
I00
sg14
Nsg15
I13
sba(iGraph
Node
p665
(dp666
g8
(lp667
sg10
Nsg11
g12
sS'r'
I5
sg13
I00
sg14
Nsg15
I14
sbasg58
I0
sg59
I0
sg60
Nsg61
I0
sg62
I15
sg63
I5
sg64
I0
sg65
(lp668
sg67
I0
sg68
(lp669
sba(iGraph
Graph
p670
(dp671
g4
(lp672
(iGraph
Node
p673
(dp674
g8
(lp675
sg10
Nsg11
g12
sS'r'
I5
sg13
I00
sg14
Nsg15
I0
sba(iGraph
Node
p676
(dp677
g8
(lp678
sg10
Nsg11
g12
sS'r'
I5
sg13
I00
sg14
Nsg15
I1
sba(iGraph
Node
p679
(dp680
g8
(lp681
sg10
Nsg11
g12
sS'r'
I5
sg13
I00
sg14
Nsg15
I2
sba(iGraph
Node
p682
(dp683
g8
(lp684
sg10
Nsg11
g12
sS'r'
I5
sg13
I00
sg14
Nsg15
I3
sba(iGraph
Node
p685
(dp686
g8
(lp687
sg10
Nsg11
g12
sS'r'
I5
sg13
I00
sg14
Nsg15
I4
sba(iGraph
Node
p688
(dp689
g8
(lp690
sg10
Nsg11
g12
sS'r'
I5
sg13
I00
sg14
Nsg15
I5
sba(iGraph
Node
p691
(dp692
g8
(lp693
sg10
Nsg11
g12
sS'r'
I5
sg13
I00
sg14
Nsg15
I6
sba(iGraph
Node
p694
(dp695
g8
(lp696
sg10
Nsg11
g12
sS'r'
I5
sg13
I00
sg14
Nsg15
I7
sba(iGraph
Node
p697
(dp698
g8
(lp699
sg10
Nsg11
g12
sS'r'
I5
sg13
I00
sg14
Nsg15
I8
sba(iGraph
Node
p700
(dp701
g8
(lp702
sg10
Nsg11
g12
sS'r'
I5
sg13
I00
sg14
Nsg15
I9
sba(iGraph
Node
p703
(dp704
g8
(lp705
sg10
Nsg11
g12
sS'r'
I5
sg13
I00
sg14
Nsg15
I10
sba(iGraph
Node
p706
(dp707
g8
(lp708
sg10
Nsg11
g12
sS'r'
I5
sg13
I00
sg14
Nsg15
I11
sba(iGraph
Node
p709
(dp710
g8
(lp711
sg10
Nsg11
g12
sS'r'
I5
sg13
I00
sg14
Nsg15
I12
sba(iGraph
Node
p712
(dp713
g8
(lp714
sg10
Nsg11
g12
sS'r'
I5
sg13
I00
sg14
Nsg15
I13
sba(iGraph
Node
p715
(dp716
g8
(lp717
sg10
Nsg11
g12
sS'r'
I5
sg13
I00
sg14
Nsg15
I14
sbasg58
I0
sg59
I0
sg60
Nsg61
I0
sg62
I15
sg63
I5
sg64
I0
sg65
(lp718
sg67
I0
sg68
(lp719
sba(iGraph
Graph
p720
(dp721
g4
(lp722
(iGraph
Node
p723
(dp724
g8
(lp725
sg10
Nsg11
g12
sS'r'
I5
sg13
I00
sg14
Nsg15
I0
sba(iGraph
Node
p726
(dp727
g8
(lp728
sg10
Nsg11
g12
sS'r'
I5
sg13
I00
sg14
Nsg15
I1
sba(iGraph
Node
p729
(dp730
g8
(lp731
sg10
Nsg11
g12
sS'r'
I5
sg13
I00
sg14
Nsg15
I2
sba(iGraph
Node
p732
(dp733
g8
(lp734
sg10
Nsg11
g12
sS'r'
I5
sg13
I00
sg14
Nsg15
I3
sba(iGraph
Node
p735
(dp736
g8
(lp737
sg10
Nsg11
g12
sS'r'
I5
sg13
I00
sg14
Nsg15
I4
sba(iGraph
Node
p738
(dp739
g8
(lp740
sg10
Nsg11
g12
sS'r'
I5
sg13
I00
sg14
Nsg15
I5
sba(iGraph
Node
p741
(dp742
g8
(lp743
sg10
Nsg11
g12
sS'r'
I5
sg13
I00
sg14
Nsg15
I6
sba(iGraph
Node
p744
(dp745
g8
(lp746
sg10
Nsg11
g12
sS'r'
I5
sg13
I00
sg14
Nsg15
I7
sba(iGraph
Node
p747
(dp748
g8
(lp749
sg10
Nsg11
g12
sS'r'
I5
sg13
I00
sg14
Nsg15
I8
sba(iGraph
Node
p750
(dp751
g8
(lp752
sg10
Nsg11
g12
sS'r'
I5
sg13
I00
sg14
Nsg15
I9
sba(iGraph
Node
p753
(dp754
g8
(lp755
sg10
Nsg11
g12
sS'r'
I5
sg13
I00
sg14
Nsg15
I10
sba(iGraph
Node
p756
(dp757
g8
(lp758
sg10
Nsg11
g12
sS'r'
I5
sg13
I00
sg14
Nsg15
I11
sba(iGraph
Node
p759
(dp760
g8
(lp761
sg10
Nsg11
g12
sS'r'
I5
sg13
I00
sg14
Nsg15
I12
sba(iGraph
Node
p762
(dp763
g8
(lp764
sg10
Nsg11
g12
sS'r'
I5
sg13
I00
sg14
Nsg15
I13
sba(iGraph
Node
p765
(dp766
g8
(lp767
sg10
Nsg11
g12
sS'r'
I5
sg13
I00
sg14
Nsg15
I14
sbasg58
I0
sg59
I0
sg60
Nsg61
I0
sg62
I15
sg63
I5
sg64
I0
sg65
(lp768
sg67
I0
sg68
(lp769
sba(iGraph
Graph
p770
(dp771
g4
(lp772
(iGraph
Node
p773
(dp774
g8
(lp775
sg10
Nsg11
g12
sS'r'
I5
sg13
I00
sg14
Nsg15
I0
sba(iGraph
Node
p776
(dp777
g8
(lp778
sg10
Nsg11
g12
sS'r'
I5
sg13
I00
sg14
Nsg15
I1
sba(iGraph
Node
p779
(dp780
g8
(lp781
sg10
Nsg11
g12
sS'r'
I5
sg13
I00
sg14
Nsg15
I2
sba(iGraph
Node
p782
(dp783
g8
(lp784
sg10
Nsg11
g12
sS'r'
I5
sg13
I00
sg14
Nsg15
I3
sba(iGraph
Node
p785
(dp786
g8
(lp787
sg10
Nsg11
g12
sS'r'
I5
sg13
I00
sg14
Nsg15
I4
sba(iGraph
Node
p788
(dp789
g8
(lp790
sg10
Nsg11
g12
sS'r'
I5
sg13
I00
sg14
Nsg15
I5
sba(iGraph
Node
p791
(dp792
g8
(lp793
sg10
Nsg11
g12
sS'r'
I5
sg13
I00
sg14
Nsg15
I6
sba(iGraph
Node
p794
(dp795
g8
(lp796
sg10
Nsg11
g12
sS'r'
I5
sg13
I00
sg14
Nsg15
I7
sba(iGraph
Node
p797
(dp798
g8
(lp799
sg10
Nsg11
g12
sS'r'
I5
sg13
I00
sg14
Nsg15
I8
sba(iGraph
Node
p800
(dp801
g8
(lp802
sg10
Nsg11
g12
sS'r'
I5
sg13
I00
sg14
Nsg15
I9
sba(iGraph
Node
p803
(dp804
g8
(lp805
sg10
Nsg11
g12
sS'r'
I5
sg13
I00
sg14
Nsg15
I10
sba(iGraph
Node
p806
(dp807
g8
(lp808
sg10
Nsg11
g12
sS'r'
I5
sg13
I00
sg14
Nsg15
I11
sba(iGraph
Node
p809
(dp810
g8
(lp811
sg10
Nsg11
g12
sS'r'
I5
sg13
I00
sg14
Nsg15
I12
sba(iGraph
Node
p812
(dp813
g8
(lp814
sg10
Nsg11
g12
sS'r'
I5
sg13
I00
sg14
Nsg15
I13
sba(iGraph
Node
p815
(dp816
g8
(lp817
sg10
Nsg11
g12
sS'r'
I5
sg13
I00
sg14
Nsg15
I14
sbasg58
I0
sg59
I0
sg60
Nsg61
I0
sg62
I15
sg63
I5
sg64
I0
sg65
(lp818
sg67
I0
sg68
(lp819
sba(iGraph
Graph
p820
(dp821
g4
(lp822
(iGraph
Node
p823
(dp824
g8
(lp825
sg10
Nsg11
g12
sS'r'
I5
sg13
I00
sg14
Nsg15
I0
sba(iGraph
Node
p826
(dp827
g8
(lp828
sg10
Nsg11
g12
sS'r'
I5
sg13
I00
sg14
Nsg15
I1
sba(iGraph
Node
p829
(dp830
g8
(lp831
sg10
Nsg11
g12
sS'r'
I5
sg13
I00
sg14
Nsg15
I2
sba(iGraph
Node
p832
(dp833
g8
(lp834
sg10
Nsg11
g12
sS'r'
I5
sg13
I00
sg14
Nsg15
I3
sba(iGraph
Node
p835
(dp836
g8
(lp837
sg10
Nsg11
g12
sS'r'
I5
sg13
I00
sg14
Nsg15
I4
sba(iGraph
Node
p838
(dp839
g8
(lp840
sg10
Nsg11
g12
sS'r'
I5
sg13
I00
sg14
Nsg15
I5
sba(iGraph
Node
p841
(dp842
g8
(lp843
sg10
Nsg11
g12
sS'r'
I5
sg13
I00
sg14
Nsg15
I6
sba(iGraph
Node
p844
(dp845
g8
(lp846
sg10
Nsg11
g12
sS'r'
I5
sg13
I00
sg14
Nsg15
I7
sba(iGraph
Node
p847
(dp848
g8
(lp849
sg10
Nsg11
g12
sS'r'
I5
sg13
I00
sg14
Nsg15
I8
sba(iGraph
Node
p850
(dp851
g8
(lp852
sg10
Nsg11
g12
sS'r'
I5
sg13
I00
sg14
Nsg15
I9
sba(iGraph
Node
p853
(dp854
g8
(lp855
sg10
Nsg11
g12
sS'r'
I5
sg13
I00
sg14
Nsg15
I10
sba(iGraph
Node
p856
(dp857
g8
(lp858
sg10
Nsg11
g12
sS'r'
I5
sg13
I00
sg14
Nsg15
I11
sba(iGraph
Node
p859
(dp860
g8
(lp861
sg10
Nsg11
g12
sS'r'
I5
sg13
I00
sg14
Nsg15
I12
sba(iGraph
Node
p862
(dp863
g8
(lp864
sg10
Nsg11
g12
sS'r'
I5
sg13
I00
sg14
Nsg15
I13
sba(iGraph
Node
p865
(dp866
g8
(lp867
sg10
Nsg11
g12
sS'r'
I5
sg13
I00
sg14
Nsg15
I14
sbasg58
I0
sg59
I0
sg60
Nsg61
I0
sg62
I15
sg63
I5
sg64
I0
sg65
(lp868
sg67
I0
sg68
(lp869
sba(iGraph
Graph
p870
(dp871
g4
(lp872
(iGraph
Node
p873
(dp874
g8
(lp875
sg10
Nsg11
g12
sS'r'
I5
sg13
I00
sg14
Nsg15
I0
sba(iGraph
Node
p876
(dp877
g8
(lp878
sg10
Nsg11
g12
sS'r'
I5
sg13
I00
sg14
Nsg15
I1
sba(iGraph
Node
p879
(dp880
g8
(lp881
sg10
Nsg11
g12
sS'r'
I5
sg13
I00
sg14
Nsg15
I2
sba(iGraph
Node
p882
(dp883
g8
(lp884
sg10
Nsg11
g12
sS'r'
I5
sg13
I00
sg14
Nsg15
I3
sba(iGraph
Node
p885
(dp886
g8
(lp887
sg10
Nsg11
g12
sS'r'
I5
sg13
I00
sg14
Nsg15
I4
sba(iGraph
Node
p888
(dp889
g8
(lp890
sg10
Nsg11
g12
sS'r'
I5
sg13
I00
sg14
Nsg15
I5
sba(iGraph
Node
p891
(dp892
g8
(lp893
sg10
Nsg11
g12
sS'r'
I5
sg13
I00
sg14
Nsg15
I6
sba(iGraph
Node
p894
(dp895
g8
(lp896
sg10
Nsg11
g12
sS'r'
I5
sg13
I00
sg14
Nsg15
I7
sba(iGraph
Node
p897
(dp898
g8
(lp899
sg10
Nsg11
g12
sS'r'
I5
sg13
I00
sg14
Nsg15
I8
sba(iGraph
Node
p900
(dp901
g8
(lp902
sg10
Nsg11
g12
sS'r'
I5
sg13
I00
sg14
Nsg15
I9
sba(iGraph
Node
p903
(dp904
g8
(lp905
sg10
Nsg11
g12
sS'r'
I5
sg13
I00
sg14
Nsg15
I10
sba(iGraph
Node
p906
(dp907
g8
(lp908
sg10
Nsg11
g12
sS'r'
I5
sg13
I00
sg14
Nsg15
I11
sba(iGraph
Node
p909
(dp910
g8
(lp911
sg10
Nsg11
g12
sS'r'
I5
sg13
I00
sg14
Nsg15
I12
sba(iGraph
Node
p912
(dp913
g8
(lp914
sg10
Nsg11
g12
sS'r'
I5
sg13
I00
sg14
Nsg15
I13
sba(iGraph
Node
p915
(dp916
g8
(lp917
sg10
Nsg11
g12
sS'r'
I5
sg13
I00
sg14
Nsg15
I14
sbasg58
I0
sg59
I0
sg60
Nsg61
I0
sg62
I15
sg63
I5
sg64
I0
sg65
(lp918
sg67
I0
sg68
(lp919
sba(iGraph
Graph
p920
(dp921
g4
(lp922
(iGraph
Node
p923
(dp924
g8
(lp925
sg10
Nsg11
g12
sS'r'
I5
sg13
I00
sg14
Nsg15
I0
sba(iGraph
Node
p926
(dp927
g8
(lp928
sg10
Nsg11
g12
sS'r'
I5
sg13
I00
sg14
Nsg15
I1
sba(iGraph
Node
p929
(dp930
g8
(lp931
sg10
Nsg11
g12
sS'r'
I5
sg13
I00
sg14
Nsg15
I2
sba(iGraph
Node
p932
(dp933
g8
(lp934
sg10
Nsg11
g12
sS'r'
I5
sg13
I00
sg14
Nsg15
I3
sba(iGraph
Node
p935
(dp936
g8
(lp937
sg10
Nsg11
g12
sS'r'
I5
sg13
I00
sg14
Nsg15
I4
sba(iGraph
Node
p938
(dp939
g8
(lp940
sg10
Nsg11
g12
sS'r'
I5
sg13
I00
sg14
Nsg15
I5
sba(iGraph
Node
p941
(dp942
g8
(lp943
sg10
Nsg11
g12
sS'r'
I5
sg13
I00
sg14
Nsg15
I6
sba(iGraph
Node
p944
(dp945
g8
(lp946
sg10
Nsg11
g12
sS'r'
I5
sg13
I00
sg14
Nsg15
I7
sba(iGraph
Node
p947
(dp948
g8
(lp949
sg10
Nsg11
g12
sS'r'
I5
sg13
I00
sg14
Nsg15
I8
sba(iGraph
Node
p950
(dp951
g8
(lp952
sg10
Nsg11
g12
sS'r'
I5
sg13
I00
sg14
Nsg15
I9
sba(iGraph
Node
p953
(dp954
g8
(lp955
sg10
Nsg11
g12
sS'r'
I5
sg13
I00
sg14
Nsg15
I10
sba(iGraph
Node
p956
(dp957
g8
(lp958
sg10
Nsg11
g12
sS'r'
I5
sg13
I00
sg14
Nsg15
I11
sba(iGraph
Node
p959
(dp960
g8
(lp961
sg10
Nsg11
g12
sS'r'
I5
sg13
I00
sg14
Nsg15
I12
sba(iGraph
Node
p962
(dp963
g8
(lp964
sg10
Nsg11
g12
sS'r'
I5
sg13
I00
sg14
Nsg15
I13
sba(iGraph
Node
p965
(dp966
g8
(lp967
sg10
Nsg11
g12
sS'r'
I5
sg13
I00
sg14
Nsg15
I14
sbasg58
I0
sg59
I0
sg60
Nsg61
I0
sg62
I15
sg63
I5
sg64
I0
sg65
(lp968
sg67
I0
sg68
(lp969
sba(iGraph
Graph
p970
(dp971
g4
(lp972
(iGraph
Node
p973
(dp974
g8
(lp975
sg10
Nsg11
g12
sS'r'
I5
sg13
I00
sg14
Nsg15
I0
sba(iGraph
Node
p976
(dp977
g8
(lp978
sg10
Nsg11
g12
sS'r'
I5
sg13
I00
sg14
Nsg15
I1
sba(iGraph
Node
p979
(dp980
g8
(lp981
sg10
Nsg11
g12
sS'r'
I5
sg13
I00
sg14
Nsg15
I2
sba(iGraph
Node
p982
(dp983
g8
(lp984
sg10
Nsg11
g12
sS'r'
I5
sg13
I00
sg14
Nsg15
I3
sba(iGraph
Node
p985
(dp986
g8
(lp987
sg10
Nsg11
g12
sS'r'
I5
sg13
I00
sg14
Nsg15
I4
sba(iGraph
Node
p988
(dp989
g8
(lp990
sg10
Nsg11
g12
sS'r'
I5
sg13
I00
sg14
Nsg15
I5
sba(iGraph
Node
p991
(dp992
g8
(lp993
sg10
Nsg11
g12
sS'r'
I5
sg13
I00
sg14
Nsg15
I6
sba(iGraph
Node
p994
(dp995
g8
(lp996
sg10
Nsg11
g12
sS'r'
I5
sg13
I00
sg14
Nsg15
I7
sba(iGraph
Node
p997
(dp998
g8
(lp999
sg10
Nsg11
g12
sS'r'
I5
sg13
I00
sg14
Nsg15
I8
sba(iGraph
Node
p1000
(dp1001
g8
(lp1002
sg10
Nsg11
g12
sS'r'
I5
sg13
I00
sg14
Nsg15
I9
sba(iGraph
Node
p1003
(dp1004
g8
(lp1005
sg10
Nsg11
g12
sS'r'
I5
sg13
I00
sg14
Nsg15
I10
sba(iGraph
Node
p1006
(dp1007
g8
(lp1008
sg10
Nsg11
g12
sS'r'
I5
sg13
I00
sg14
Nsg15
I11
sba(iGraph
Node
p1009
(dp1010
g8
(lp1011
sg10
Nsg11
g12
sS'r'
I5
sg13
I00
sg14
Nsg15
I12
sba(iGraph
Node
p1012
(dp1013
g8
(lp1014
sg10
Nsg11
g12
sS'r'
I5
sg13
I00
sg14
Nsg15
I13
sba(iGraph
Node
p1015
(dp1016
g8
(lp1017
sg10
Nsg11
g12
sS'r'
I5
sg13
I00
sg14
Nsg15
I14
sbasg58
I0
sg59
I0
sg60
Nsg61
I0
sg62
I15
sg63
I5
sg64
I0
sg65
(lp1018
sg67
I0
sg68
(lp1019
sba(iGraph
Graph
p1020
(dp1021
g4
(lp1022
(iGraph
Node
p1023
(dp1024
g8
(lp1025
sg10
Nsg11
g12
sS'r'
I5
sg13
I00
sg14
Nsg15
I0
sba(iGraph
Node
p1026
(dp1027
g8
(lp1028
sg10
Nsg11
g12
sS'r'
I5
sg13
I00
sg14
Nsg15
I1
sba(iGraph
Node
p1029
(dp1030
g8
(lp1031
sg10
Nsg11
g12
sS'r'
I5
sg13
I00
sg14
Nsg15
I2
sba(iGraph
Node
p1032
(dp1033
g8
(lp1034
sg10
Nsg11
g12
sS'r'
I5
sg13
I00
sg14
Nsg15
I3
sba(iGraph
Node
p1035
(dp1036
g8
(lp1037
sg10
Nsg11
g12
sS'r'
I5
sg13
I00
sg14
Nsg15
I4
sba(iGraph
Node
p1038
(dp1039
g8
(lp1040
sg10
Nsg11
g12
sS'r'
I5
sg13
I00
sg14
Nsg15
I5
sba(iGraph
Node
p1041
(dp1042
g8
(lp1043
sg10
Nsg11
g12
sS'r'
I5
sg13
I00
sg14
Nsg15
I6
sba(iGraph
Node
p1044
(dp1045
g8
(lp1046
sg10
Nsg11
g12
sS'r'
I5
sg13
I00
sg14
Nsg15
I7
sba(iGraph
Node
p1047
(dp1048
g8
(lp1049
sg10
Nsg11
g12
sS'r'
I5
sg13
I00
sg14
Nsg15
I8
sba(iGraph
Node
p1050
(dp1051
g8
(lp1052
sg10
Nsg11
g12
sS'r'
I5
sg13
I00
sg14
Nsg15
I9
sba(iGraph
Node
p1053
(dp1054
g8
(lp1055
sg10
Nsg11
g12
sS'r'
I5
sg13
I00
sg14
Nsg15
I10
sba(iGraph
Node
p1056
(dp1057
g8
(lp1058
sg10
Nsg11
g12
sS'r'
I5
sg13
I00
sg14
Nsg15
I11
sba(iGraph
Node
p1059
(dp1060
g8
(lp1061
sg10
Nsg11
g12
sS'r'
I5
sg13
I00
sg14
Nsg15
I12
sba(iGraph
Node
p1062
(dp1063
g8
(lp1064
sg10
Nsg11
g12
sS'r'
I5
sg13
I00
sg14
Nsg15
I13
sba(iGraph
Node
p1065
(dp1066
g8
(lp1067
sg10
Nsg11
g12
sS'r'
I5
sg13
I00
sg14
Nsg15
I14
sbasg58
I0
sg59
I0
sg60
Nsg61
I0
sg62
I15
sg63
I5
sg64
I0
sg65
(lp1068
sg67
I0
sg68
(lp1069
sba(iGraph
Graph
p1070
(dp1071
g4
(lp1072
(iGraph
Node
p1073
(dp1074
g8
(lp1075
sg10
Nsg11
g12
sS'r'
I5
sg13
I00
sg14
Nsg15
I0
sba(iGraph
Node
p1076
(dp1077
g8
(lp1078
sg10
Nsg11
g12
sS'r'
I5
sg13
I00
sg14
Nsg15
I1
sba(iGraph
Node
p1079
(dp1080
g8
(lp1081
sg10
Nsg11
g12
sS'r'
I5
sg13
I00
sg14
Nsg15
I2
sba(iGraph
Node
p1082
(dp1083
g8
(lp1084
sg10
Nsg11
g12
sS'r'
I5
sg13
I00
sg14
Nsg15
I3
sba(iGraph
Node
p1085
(dp1086
g8
(lp1087
sg10
Nsg11
g12
sS'r'
I5
sg13
I00
sg14
Nsg15
I4
sba(iGraph
Node
p1088
(dp1089
g8
(lp1090
sg10
Nsg11
g12
sS'r'
I5
sg13
I00
sg14
Nsg15
I5
sba(iGraph
Node
p1091
(dp1092
g8
(lp1093
sg10
Nsg11
g12
sS'r'
I5
sg13
I00
sg14
Nsg15
I6
sba(iGraph
Node
p1094
(dp1095
g8
(lp1096
sg10
Nsg11
g12
sS'r'
I5
sg13
I00
sg14
Nsg15
I7
sba(iGraph
Node
p1097
(dp1098
g8
(lp1099
sg10
Nsg11
g12
sS'r'
I5
sg13
I00
sg14
Nsg15
I8
sba(iGraph
Node
p1100
(dp1101
g8
(lp1102
sg10
Nsg11
g12
sS'r'
I5
sg13
I00
sg14
Nsg15
I9
sba(iGraph
Node
p1103
(dp1104
g8
(lp1105
sg10
Nsg11
g12
sS'r'
I5
sg13
I00
sg14
Nsg15
I10
sba(iGraph
Node
p1106
(dp1107
g8
(lp1108
sg10
Nsg11
g12
sS'r'
I5
sg13
I00
sg14
Nsg15
I11
sba(iGraph
Node
p1109
(dp1110
g8
(lp1111
sg10
Nsg11
g12
sS'r'
I5
sg13
I00
sg14
Nsg15
I12
sba(iGraph
Node
p1112
(dp1113
g8
(lp1114
sg10
Nsg11
g12
sS'r'
I5
sg13
I00
sg14
Nsg15
I13
sba(iGraph
Node
p1115
(dp1116
g8
(lp1117
sg10
Nsg11
g12
sS'r'
I5
sg13
I00
sg14
Nsg15
I14
sbasg58
I0
sg59
I0
sg60
Nsg61
I0
sg62
I15
sg63
I5
sg64
I0
sg65
(lp1118
sg67
I0
sg68
(lp1119
sba(iGraph
Graph
p1120
(dp1121
g4
(lp1122
(iGraph
Node
p1123
(dp1124
g8
(lp1125
sg10
Nsg11
g12
sS'r'
I5
sg13
I00
sg14
Nsg15
I0
sba(iGraph
Node
p1126
(dp1127
g8
(lp1128
sg10
Nsg11
g12
sS'r'
I5
sg13
I00
sg14
Nsg15
I1
sba(iGraph
Node
p1129
(dp1130
g8
(lp1131
sg10
Nsg11
g12
sS'r'
I5
sg13
I00
sg14
Nsg15
I2
sba(iGraph
Node
p1132
(dp1133
g8
(lp1134
sg10
Nsg11
g12
sS'r'
I5
sg13
I00
sg14
Nsg15
I3
sba(iGraph
Node
p1135
(dp1136
g8
(lp1137
sg10
Nsg11
g12
sS'r'
I5
sg13
I00
sg14
Nsg15
I4
sba(iGraph
Node
p1138
(dp1139
g8
(lp1140
sg10
Nsg11
g12
sS'r'
I5
sg13
I00
sg14
Nsg15
I5
sba(iGraph
Node
p1141
(dp1142
g8
(lp1143
sg10
Nsg11
g12
sS'r'
I5
sg13
I00
sg14
Nsg15
I6
sba(iGraph
Node
p1144
(dp1145
g8
(lp1146
sg10
Nsg11
g12
sS'r'
I5
sg13
I00
sg14
Nsg15
I7
sba(iGraph
Node
p1147
(dp1148
g8
(lp1149
sg10
Nsg11
g12
sS'r'
I5
sg13
I00
sg14
Nsg15
I8
sba(iGraph
Node
p1150
(dp1151
g8
(lp1152
sg10
Nsg11
g12
sS'r'
I5
sg13
I00
sg14
Nsg15
I9
sba(iGraph
Node
p1153
(dp1154
g8
(lp1155
sg10
Nsg11
g12
sS'r'
I5
sg13
I00
sg14
Nsg15
I10
sba(iGraph
Node
p1156
(dp1157
g8
(lp1158
sg10
Nsg11
g12
sS'r'
I5
sg13
I00
sg14
Nsg15
I11
sba(iGraph
Node
p1159
(dp1160
g8
(lp1161
sg10
Nsg11
g12
sS'r'
I5
sg13
I00
sg14
Nsg15
I12
sba(iGraph
Node
p1162
(dp1163
g8
(lp1164
sg10
Nsg11
g12
sS'r'
I5
sg13
I00
sg14
Nsg15
I13
sba(iGraph
Node
p1165
(dp1166
g8
(lp1167
sg10
Nsg11
g12
sS'r'
I5
sg13
I00
sg14
Nsg15
I14
sbasg58
I0
sg59
I0
sg60
Nsg61
I0
sg62
I15
sg63
I5
sg64
I0
sg65
(lp1168
sg67
I0
sg68
(lp1169
sba(iGraph
Graph
p1170
(dp1171
g4
(lp1172
(iGraph
Node
p1173
(dp1174
g8
(lp1175
sg10
Nsg11
g12
sS'r'
I5
sg13
I00
sg14
Nsg15
I0
sba(iGraph
Node
p1176
(dp1177
g8
(lp1178
sg10
Nsg11
g12
sS'r'
I5
sg13
I00
sg14
Nsg15
I1
sba(iGraph
Node
p1179
(dp1180
g8
(lp1181
sg10
Nsg11
g12
sS'r'
I5
sg13
I00
sg14
Nsg15
I2
sba(iGraph
Node
p1182
(dp1183
g8
(lp1184
sg10
Nsg11
g12
sS'r'
I5
sg13
I00
sg14
Nsg15
I3
sba(iGraph
Node
p1185
(dp1186
g8
(lp1187
sg10
Nsg11
g12
sS'r'
I5
sg13
I00
sg14
Nsg15
I4
sba(iGraph
Node
p1188
(dp1189
g8
(lp1190
sg10
Nsg11
g12
sS'r'
I5
sg13
I00
sg14
Nsg15
I5
sba(iGraph
Node
p1191
(dp1192
g8
(lp1193
sg10
Nsg11
g12
sS'r'
I5
sg13
I00
sg14
Nsg15
I6
sba(iGraph
Node
p1194
(dp1195
g8
(lp1196
sg10
Nsg11
g12
sS'r'
I5
sg13
I00
sg14
Nsg15
I7
sba(iGraph
Node
p1197
(dp1198
g8
(lp1199
sg10
Nsg11
g12
sS'r'
I5
sg13
I00
sg14
Nsg15
I8
sba(iGraph
Node
p1200
(dp1201
g8
(lp1202
sg10
Nsg11
g12
sS'r'
I5
sg13
I00
sg14
Nsg15
I9
sba(iGraph
Node
p1203
(dp1204
g8
(lp1205
sg10
Nsg11
g12
sS'r'
I5
sg13
I00
sg14
Nsg15
I10
sba(iGraph
Node
p1206
(dp1207
g8
(lp1208
sg10
Nsg11
g12
sS'r'
I5
sg13
I00
sg14
Nsg15
I11
sba(iGraph
Node
p1209
(dp1210
g8
(lp1211
sg10
Nsg11
g12
sS'r'
I5
sg13
I00
sg14
Nsg15
I12
sba(iGraph
Node
p1212
(dp1213
g8
(lp1214
sg10
Nsg11
g12
sS'r'
I5
sg13
I00
sg14
Nsg15
I13
sba(iGraph
Node
p1215
(dp1216
g8
(lp1217
sg10
Nsg11
g12
sS'r'
I5
sg13
I00
sg14
Nsg15
I14
sbasg58
I0
sg59
I0
sg60
Nsg61
I0
sg62
I15
sg63
I5
sg64
I0
sg65
(lp1218
sg67
I0
sg68
(lp1219
sba(iGraph
Graph
p1220
(dp1221
g4
(lp1222
(iGraph
Node
p1223
(dp1224
g8
(lp1225
sg10
Nsg11
g12
sS'r'
I5
sg13
I00
sg14
Nsg15
I0
sba(iGraph
Node
p1226
(dp1227
g8
(lp1228
sg10
Nsg11
g12
sS'r'
I5
sg13
I00
sg14
Nsg15
I1
sba(iGraph
Node
p1229
(dp1230
g8
(lp1231
sg10
Nsg11
g12
sS'r'
I5
sg13
I00
sg14
Nsg15
I2
sba(iGraph
Node
p1232
(dp1233
g8
(lp1234
sg10
Nsg11
g12
sS'r'
I5
sg13
I00
sg14
Nsg15
I3
sba(iGraph
Node
p1235
(dp1236
g8
(lp1237
sg10
Nsg11
g12
sS'r'
I5
sg13
I00
sg14
Nsg15
I4
sba(iGraph
Node
p1238
(dp1239
g8
(lp1240
sg10
Nsg11
g12
sS'r'
I5
sg13
I00
sg14
Nsg15
I5
sba(iGraph
Node
p1241
(dp1242
g8
(lp1243
sg10
Nsg11
g12
sS'r'
I5
sg13
I00
sg14
Nsg15
I6
sba(iGraph
Node
p1244
(dp1245
g8
(lp1246
sg10
Nsg11
g12
sS'r'
I5
sg13
I00
sg14
Nsg15
I7
sba(iGraph
Node
p1247
(dp1248
g8
(lp1249
sg10
Nsg11
g12
sS'r'
I5
sg13
I00
sg14
Nsg15
I8
sba(iGraph
Node
p1250
(dp1251
g8
(lp1252
sg10
Nsg11
g12
sS'r'
I5
sg13
I00
sg14
Nsg15
I9
sba(iGraph
Node
p1253
(dp1254
g8
(lp1255
sg10
Nsg11
g12
sS'r'
I5
sg13
I00
sg14
Nsg15
I10
sba(iGraph
Node
p1256
(dp1257
g8
(lp1258
sg10
Nsg11
g12
sS'r'
I5
sg13
I00
sg14
Nsg15
I11
sba(iGraph
Node
p1259
(dp1260
g8
(lp1261
sg10
Nsg11
g12
sS'r'
I5
sg13
I00
sg14
Nsg15
I12
sba(iGraph
Node
p1262
(dp1263
g8
(lp1264
sg10
Nsg11
g12
sS'r'
I5
sg13
I00
sg14
Nsg15
I13
sba(iGraph
Node
p1265
(dp1266
g8
(lp1267
sg10
Nsg11
g12
sS'r'
I5
sg13
I00
sg14
Nsg15
I14
sbasg58
I0
sg59
I0
sg60
Nsg61
I0
sg62
I15
sg63
I5
sg64
I0
sg65
(lp1268
sg67
I0
sg68
(lp1269
sba(iGraph
Graph
p1270
(dp1271
g4
(lp1272
(iGraph
Node
p1273
(dp1274
g8
(lp1275
sg10
Nsg11
g12
sS'r'
I5
sg13
I00
sg14
Nsg15
I0
sba(iGraph
Node
p1276
(dp1277
g8
(lp1278
sg10
Nsg11
g12
sS'r'
I5
sg13
I00
sg14
Nsg15
I1
sba(iGraph
Node
p1279
(dp1280
g8
(lp1281
sg10
Nsg11
g12
sS'r'
I5
sg13
I00
sg14
Nsg15
I2
sba(iGraph
Node
p1282
(dp1283
g8
(lp1284
sg10
Nsg11
g12
sS'r'
I5
sg13
I00
sg14
Nsg15
I3
sba(iGraph
Node
p1285
(dp1286
g8
(lp1287
sg10
Nsg11
g12
sS'r'
I5
sg13
I00
sg14
Nsg15
I4
sba(iGraph
Node
p1288
(dp1289
g8
(lp1290
sg10
Nsg11
g12
sS'r'
I5
sg13
I00
sg14
Nsg15
I5
sba(iGraph
Node
p1291
(dp1292
g8
(lp1293
sg10
Nsg11
g12
sS'r'
I5
sg13
I00
sg14
Nsg15
I6
sba(iGraph
Node
p1294
(dp1295
g8
(lp1296
sg10
Nsg11
g12
sS'r'
I5
sg13
I00
sg14
Nsg15
I7
sba(iGraph
Node
p1297
(dp1298
g8
(lp1299
sg10
Nsg11
g12
sS'r'
I5
sg13
I00
sg14
Nsg15
I8
sba(iGraph
Node
p1300
(dp1301
g8
(lp1302
sg10
Nsg11
g12
sS'r'
I5
sg13
I00
sg14
Nsg15
I9
sba(iGraph
Node
p1303
(dp1304
g8
(lp1305
sg10
Nsg11
g12
sS'r'
I5
sg13
I00
sg14
Nsg15
I10
sba(iGraph
Node
p1306
(dp1307
g8
(lp1308
sg10
Nsg11
g12
sS'r'
I5
sg13
I00
sg14
Nsg15
I11
sba(iGraph
Node
p1309
(dp1310
g8
(lp1311
sg10
Nsg11
g12
sS'r'
I5
sg13
I00
sg14
Nsg15
I12
sba(iGraph
Node
p1312
(dp1313
g8
(lp1314
sg10
Nsg11
g12
sS'r'
I5
sg13
I00
sg14
Nsg15
I13
sba(iGraph
Node
p1315
(dp1316
g8
(lp1317
sg10
Nsg11
g12
sS'r'
I5
sg13
I00
sg14
Nsg15
I14
sbasg58
I0
sg59
I0
sg60
Nsg61
I0
sg62
I15
sg63
I5
sg64
I0
sg65
(lp1318
sg67
I0
sg68
(lp1319
sba(iGraph
Graph
p1320
(dp1321
g4
(lp1322
(iGraph
Node
p1323
(dp1324
g8
(lp1325
sg10
Nsg11
g12
sS'r'
I5
sg13
I00
sg14
Nsg15
I0
sba(iGraph
Node
p1326
(dp1327
g8
(lp1328
sg10
Nsg11
g12
sS'r'
I5
sg13
I00
sg14
Nsg15
I1
sba(iGraph
Node
p1329
(dp1330
g8
(lp1331
sg10
Nsg11
g12
sS'r'
I5
sg13
I00
sg14
Nsg15
I2
sba(iGraph
Node
p1332
(dp1333
g8
(lp1334
sg10
Nsg11
g12
sS'r'
I5
sg13
I00
sg14
Nsg15
I3
sba(iGraph
Node
p1335
(dp1336
g8
(lp1337
sg10
Nsg11
g12
sS'r'
I5
sg13
I00
sg14
Nsg15
I4
sba(iGraph
Node
p1338
(dp1339
g8
(lp1340
sg10
Nsg11
g12
sS'r'
I5
sg13
I00
sg14
Nsg15
I5
sba(iGraph
Node
p1341
(dp1342
g8
(lp1343
sg10
Nsg11
g12
sS'r'
I5
sg13
I00
sg14
Nsg15
I6
sba(iGraph
Node
p1344
(dp1345
g8
(lp1346
sg10
Nsg11
g12
sS'r'
I5
sg13
I00
sg14
Nsg15
I7
sba(iGraph
Node
p1347
(dp1348
g8
(lp1349
sg10
Nsg11
g12
sS'r'
I5
sg13
I00
sg14
Nsg15
I8
sba(iGraph
Node
p1350
(dp1351
g8
(lp1352
sg10
Nsg11
g12
sS'r'
I5
sg13
I00
sg14
Nsg15
I9
sba(iGraph
Node
p1353
(dp1354
g8
(lp1355
sg10
Nsg11
g12
sS'r'
I5
sg13
I00
sg14
Nsg15
I10
sba(iGraph
Node
p1356
(dp1357
g8
(lp1358
sg10
Nsg11
g12
sS'r'
I5
sg13
I00
sg14
Nsg15
I11
sba(iGraph
Node
p1359
(dp1360
g8
(lp1361
sg10
Nsg11
g12
sS'r'
I5
sg13
I00
sg14
Nsg15
I12
sba(iGraph
Node
p1362
(dp1363
g8
(lp1364
sg10
Nsg11
g12
sS'r'
I5
sg13
I00
sg14
Nsg15
I13
sba(iGraph
Node
p1365
(dp1366
g8
(lp1367
sg10
Nsg11
g12
sS'r'
I5
sg13
I00
sg14
Nsg15
I14
sbasg58
I0
sg59
I0
sg60
Nsg61
I0
sg62
I15
sg63
I5
sg64
I0
sg65
(lp1368
sg67
I0
sg68
(lp1369
sba(iGraph
Graph
p1370
(dp1371
g4
(lp1372
(iGraph
Node
p1373
(dp1374
g8
(lp1375
sg10
Nsg11
g12
sS'r'
I5
sg13
I00
sg14
Nsg15
I0
sba(iGraph
Node
p1376
(dp1377
g8
(lp1378
sg10
Nsg11
g12
sS'r'
I5
sg13
I00
sg14
Nsg15
I1
sba(iGraph
Node
p1379
(dp1380
g8
(lp1381
sg10
Nsg11
g12
sS'r'
I5
sg13
I00
sg14
Nsg15
I2
sba(iGraph
Node
p1382
(dp1383
g8
(lp1384
sg10
Nsg11
g12
sS'r'
I5
sg13
I00
sg14
Nsg15
I3
sba(iGraph
Node
p1385
(dp1386
g8
(lp1387
sg10
Nsg11
g12
sS'r'
I5
sg13
I00
sg14
Nsg15
I4
sba(iGraph
Node
p1388
(dp1389
g8
(lp1390
sg10
Nsg11
g12
sS'r'
I5
sg13
I00
sg14
Nsg15
I5
sba(iGraph
Node
p1391
(dp1392
g8
(lp1393
sg10
Nsg11
g12
sS'r'
I5
sg13
I00
sg14
Nsg15
I6
sba(iGraph
Node
p1394
(dp1395
g8
(lp1396
sg10
Nsg11
g12
sS'r'
I5
sg13
I00
sg14
Nsg15
I7
sba(iGraph
Node
p1397
(dp1398
g8
(lp1399
sg10
Nsg11
g12
sS'r'
I5
sg13
I00
sg14
Nsg15
I8
sba(iGraph
Node
p1400
(dp1401
g8
(lp1402
sg10
Nsg11
g12
sS'r'
I5
sg13
I00
sg14
Nsg15
I9
sba(iGraph
Node
p1403
(dp1404
g8
(lp1405
sg10
Nsg11
g12
sS'r'
I5
sg13
I00
sg14
Nsg15
I10
sba(iGraph
Node
p1406
(dp1407
g8
(lp1408
sg10
Nsg11
g12
sS'r'
I5
sg13
I00
sg14
Nsg15
I11
sba(iGraph
Node
p1409
(dp1410
g8
(lp1411
sg10
Nsg11
g12
sS'r'
I5
sg13
I00
sg14
Nsg15
I12
sba(iGraph
Node
p1412
(dp1413
g8
(lp1414
sg10
Nsg11
g12
sS'r'
I5
sg13
I00
sg14
Nsg15
I13
sba(iGraph
Node
p1415
(dp1416
g8
(lp1417
sg10
Nsg11
g12
sS'r'
I5
sg13
I00
sg14
Nsg15
I14
sbasg58
I0
sg59
I0
sg60
Nsg61
I0
sg62
I15
sg63
I5
sg64
I0
sg65
(lp1418
sg67
I0
sg68
(lp1419
sba(iGraph
Graph
p1420
(dp1421
g4
(lp1422
(iGraph
Node
p1423
(dp1424
g8
(lp1425
sg10
Nsg11
g12
sS'r'
I5
sg13
I00
sg14
Nsg15
I0
sba(iGraph
Node
p1426
(dp1427
g8
(lp1428
sg10
Nsg11
g12
sS'r'
I5
sg13
I00
sg14
Nsg15
I1
sba(iGraph
Node
p1429
(dp1430
g8
(lp1431
sg10
Nsg11
g12
sS'r'
I5
sg13
I00
sg14
Nsg15
I2
sba(iGraph
Node
p1432
(dp1433
g8
(lp1434
sg10
Nsg11
g12
sS'r'
I5
sg13
I00
sg14
Nsg15
I3
sba(iGraph
Node
p1435
(dp1436
g8
(lp1437
sg10
Nsg11
g12
sS'r'
I5
sg13
I00
sg14
Nsg15
I4
sba(iGraph
Node
p1438
(dp1439
g8
(lp1440
sg10
Nsg11
g12
sS'r'
I5
sg13
I00
sg14
Nsg15
I5
sba(iGraph
Node
p1441
(dp1442
g8
(lp1443
sg10
Nsg11
g12
sS'r'
I5
sg13
I00
sg14
Nsg15
I6
sba(iGraph
Node
p1444
(dp1445
g8
(lp1446
sg10
Nsg11
g12
sS'r'
I5
sg13
I00
sg14
Nsg15
I7
sba(iGraph
Node
p1447
(dp1448
g8
(lp1449
sg10
Nsg11
g12
sS'r'
I5
sg13
I00
sg14
Nsg15
I8
sba(iGraph
Node
p1450
(dp1451
g8
(lp1452
sg10
Nsg11
g12
sS'r'
I5
sg13
I00
sg14
Nsg15
I9
sba(iGraph
Node
p1453
(dp1454
g8
(lp1455
sg10
Nsg11
g12
sS'r'
I5
sg13
I00
sg14
Nsg15
I10
sba(iGraph
Node
p1456
(dp1457
g8
(lp1458
sg10
Nsg11
g12
sS'r'
I5
sg13
I00
sg14
Nsg15
I11
sba(iGraph
Node
p1459
(dp1460
g8
(lp1461
sg10
Nsg11
g12
sS'r'
I5
sg13
I00
sg14
Nsg15
I12
sba(iGraph
Node
p1462
(dp1463
g8
(lp1464
sg10
Nsg11
g12
sS'r'
I5
sg13
I00
sg14
Nsg15
I13
sba(iGraph
Node
p1465
(dp1466
g8
(lp1467
sg10
Nsg11
g12
sS'r'
I5
sg13
I00
sg14
Nsg15
I14
sbasg58
I0
sg59
I0
sg60
Nsg61
I0
sg62
I15
sg63
I5
sg64
I0
sg65
(lp1468
sg67
I0
sg68
(lp1469
sba(iGraph
Graph
p1470
(dp1471
g4
(lp1472
(iGraph
Node
p1473
(dp1474
g8
(lp1475
sg10
Nsg11
g12
sS'r'
I5
sg13
I00
sg14
Nsg15
I0
sba(iGraph
Node
p1476
(dp1477
g8
(lp1478
sg10
Nsg11
g12
sS'r'
I5
sg13
I00
sg14
Nsg15
I1
sba(iGraph
Node
p1479
(dp1480
g8
(lp1481
sg10
Nsg11
g12
sS'r'
I5
sg13
I00
sg14
Nsg15
I2
sba(iGraph
Node
p1482
(dp1483
g8
(lp1484
sg10
Nsg11
g12
sS'r'
I5
sg13
I00
sg14
Nsg15
I3
sba(iGraph
Node
p1485
(dp1486
g8
(lp1487
sg10
Nsg11
g12
sS'r'
I5
sg13
I00
sg14
Nsg15
I4
sba(iGraph
Node
p1488
(dp1489
g8
(lp1490
sg10
Nsg11
g12
sS'r'
I5
sg13
I00
sg14
Nsg15
I5
sba(iGraph
Node
p1491
(dp1492
g8
(lp1493
sg10
Nsg11
g12
sS'r'
I5
sg13
I00
sg14
Nsg15
I6
sba(iGraph
Node
p1494
(dp1495
g8
(lp1496
sg10
Nsg11
g12
sS'r'
I5
sg13
I00
sg14
Nsg15
I7
sba(iGraph
Node
p1497
(dp1498
g8
(lp1499
sg10
Nsg11
g12
sS'r'
I5
sg13
I00
sg14
Nsg15
I8
sba(iGraph
Node
p1500
(dp1501
g8
(lp1502
sg10
Nsg11
g12
sS'r'
I5
sg13
I00
sg14
Nsg15
I9
sba(iGraph
Node
p1503
(dp1504
g8
(lp1505
sg10
Nsg11
g12
sS'r'
I5
sg13
I00
sg14
Nsg15
I10
sba(iGraph
Node
p1506
(dp1507
g8
(lp1508
sg10
Nsg11
g12
sS'r'
I5
sg13
I00
sg14
Nsg15
I11
sba(iGraph
Node
p1509
(dp1510
g8
(lp1511
sg10
Nsg11
g12
sS'r'
I5
sg13
I00
sg14
Nsg15
I12
sba(iGraph
Node
p1512
(dp1513
g8
(lp1514
sg10
Nsg11
g12
sS'r'
I5
sg13
I00
sg14
Nsg15
I13
sba(iGraph
Node
p1515
(dp1516
g8
(lp1517
sg10
Nsg11
g12
sS'r'
I5
sg13
I00
sg14
Nsg15
I14
sbasg58
I0
sg59
I0
sg60
Nsg61
I0
sg62
I15
sg63
I5
sg64
I0
sg65
(lp1518
sg67
I0
sg68
(lp1519
sba(iGraph
Graph
p1520
(dp1521
g4
(lp1522
(iGraph
Node
p1523
(dp1524
g8
(lp1525
sg10
Nsg11
g12
sS'r'
I5
sg13
I00
sg14
Nsg15
I0
sba(iGraph
Node
p1526
(dp1527
g8
(lp1528
sg10
Nsg11
g12
sS'r'
I5
sg13
I00
sg14
Nsg15
I1
sba(iGraph
Node
p1529
(dp1530
g8
(lp1531
sg10
Nsg11
g12
sS'r'
I5
sg13
I00
sg14
Nsg15
I2
sba(iGraph
Node
p1532
(dp1533
g8
(lp1534
sg10
Nsg11
g12
sS'r'
I5
sg13
I00
sg14
Nsg15
I3
sba(iGraph
Node
p1535
(dp1536
g8
(lp1537
sg10
Nsg11
g12
sS'r'
I5
sg13
I00
sg14
Nsg15
I4
sba(iGraph
Node
p1538
(dp1539
g8
(lp1540
sg10
Nsg11
g12
sS'r'
I5
sg13
I00
sg14
Nsg15
I5
sba(iGraph
Node
p1541
(dp1542
g8
(lp1543
sg10
Nsg11
g12
sS'r'
I5
sg13
I00
sg14
Nsg15
I6
sba(iGraph
Node
p1544
(dp1545
g8
(lp1546
sg10
Nsg11
g12
sS'r'
I5
sg13
I00
sg14
Nsg15
I7
sba(iGraph
Node
p1547
(dp1548
g8
(lp1549
sg10
Nsg11
g12
sS'r'
I5
sg13
I00
sg14
Nsg15
I8
sba(iGraph
Node
p1550
(dp1551
g8
(lp1552
sg10
Nsg11
g12
sS'r'
I5
sg13
I00
sg14
Nsg15
I9
sba(iGraph
Node
p1553
(dp1554
g8
(lp1555
sg10
Nsg11
g12
sS'r'
I5
sg13
I00
sg14
Nsg15
I10
sba(iGraph
Node
p1556
(dp1557
g8
(lp1558
sg10
Nsg11
g12
sS'r'
I5
sg13
I00
sg14
Nsg15
I11
sba(iGraph
Node
p1559
(dp1560
g8
(lp1561
sg10
Nsg11
g12
sS'r'
I5
sg13
I00
sg14
Nsg15
I12
sba(iGraph
Node
p1562
(dp1563
g8
(lp1564
sg10
Nsg11
g12
sS'r'
I5
sg13
I00
sg14
Nsg15
I13
sba(iGraph
Node
p1565
(dp1566
g8
(lp1567
sg10
Nsg11
g12
sS'r'
I5
sg13
I00
sg14
Nsg15
I14
sbasg58
I0
sg59
I0
sg60
Nsg61
I0
sg62
I15
sg63
I5
sg64
I0
sg65
(lp1568
sg67
I0
sg68
(lp1569
sba(iGraph
Graph
p1570
(dp1571
g4
(lp1572
(iGraph
Node
p1573
(dp1574
g8
(lp1575
sg10
Nsg11
g12
sS'r'
I5
sg13
I00
sg14
Nsg15
I0
sba(iGraph
Node
p1576
(dp1577
g8
(lp1578
sg10
Nsg11
g12
sS'r'
I5
sg13
I00
sg14
Nsg15
I1
sba(iGraph
Node
p1579
(dp1580
g8
(lp1581
sg10
Nsg11
g12
sS'r'
I5
sg13
I00
sg14
Nsg15
I2
sba(iGraph
Node
p1582
(dp1583
g8
(lp1584
sg10
Nsg11
g12
sS'r'
I5
sg13
I00
sg14
Nsg15
I3
sba(iGraph
Node
p1585
(dp1586
g8
(lp1587
sg10
Nsg11
g12
sS'r'
I5
sg13
I00
sg14
Nsg15
I4
sba(iGraph
Node
p1588
(dp1589
g8
(lp1590
sg10
Nsg11
g12
sS'r'
I5
sg13
I00
sg14
Nsg15
I5
sba(iGraph
Node
p1591
(dp1592
g8
(lp1593
sg10
Nsg11
g12
sS'r'
I5
sg13
I00
sg14
Nsg15
I6
sba(iGraph
Node
p1594
(dp1595
g8
(lp1596
sg10
Nsg11
g12
sS'r'
I5
sg13
I00
sg14
Nsg15
I7
sba(iGraph
Node
p1597
(dp1598
g8
(lp1599
sg10
Nsg11
g12
sS'r'
I5
sg13
I00
sg14
Nsg15
I8
sba(iGraph
Node
p1600
(dp1601
g8
(lp1602
sg10
Nsg11
g12
sS'r'
I5
sg13
I00
sg14
Nsg15
I9
sba(iGraph
Node
p1603
(dp1604
g8
(lp1605
sg10
Nsg11
g12
sS'r'
I5
sg13
I00
sg14
Nsg15
I10
sba(iGraph
Node
p1606
(dp1607
g8
(lp1608
sg10
Nsg11
g12
sS'r'
I5
sg13
I00
sg14
Nsg15
I11
sba(iGraph
Node
p1609
(dp1610
g8
(lp1611
sg10
Nsg11
g12
sS'r'
I5
sg13
I00
sg14
Nsg15
I12
sba(iGraph
Node
p1612
(dp1613
g8
(lp1614
sg10
Nsg11
g12
sS'r'
I5
sg13
I00
sg14
Nsg15
I13
sba(iGraph
Node
p1615
(dp1616
g8
(lp1617
sg10
Nsg11
g12
sS'r'
I5
sg13
I00
sg14
Nsg15
I14
sbasg58
I0
sg59
I0
sg60
Nsg61
I0
sg62
I15
sg63
I5
sg64
I0
sg65
(lp1618
sg67
I0
sg68
(lp1619
sba(iGraph
Graph
p1620
(dp1621
g4
(lp1622
(iGraph
Node
p1623
(dp1624
g8
(lp1625
sg10
Nsg11
g12
sS'r'
I5
sg13
I00
sg14
Nsg15
I0
sba(iGraph
Node
p1626
(dp1627
g8
(lp1628
sg10
Nsg11
g12
sS'r'
I5
sg13
I00
sg14
Nsg15
I1
sba(iGraph
Node
p1629
(dp1630
g8
(lp1631
sg10
Nsg11
g12
sS'r'
I5
sg13
I00
sg14
Nsg15
I2
sba(iGraph
Node
p1632
(dp1633
g8
(lp1634
sg10
Nsg11
g12
sS'r'
I5
sg13
I00
sg14
Nsg15
I3
sba(iGraph
Node
p1635
(dp1636
g8
(lp1637
sg10
Nsg11
g12
sS'r'
I5
sg13
I00
sg14
Nsg15
I4
sba(iGraph
Node
p1638
(dp1639
g8
(lp1640
sg10
Nsg11
g12
sS'r'
I5
sg13
I00
sg14
Nsg15
I5
sba(iGraph
Node
p1641
(dp1642
g8
(lp1643
sg10
Nsg11
g12
sS'r'
I5
sg13
I00
sg14
Nsg15
I6
sba(iGraph
Node
p1644
(dp1645
g8
(lp1646
sg10
Nsg11
g12
sS'r'
I5
sg13
I00
sg14
Nsg15
I7
sba(iGraph
Node
p1647
(dp1648
g8
(lp1649
sg10
Nsg11
g12
sS'r'
I5
sg13
I00
sg14
Nsg15
I8
sba(iGraph
Node
p1650
(dp1651
g8
(lp1652
sg10
Nsg11
g12
sS'r'
I5
sg13
I00
sg14
Nsg15
I9
sba(iGraph
Node
p1653
(dp1654
g8
(lp1655
sg10
Nsg11
g12
sS'r'
I5
sg13
I00
sg14
Nsg15
I10
sba(iGraph
Node
p1656
(dp1657
g8
(lp1658
sg10
Nsg11
g12
sS'r'
I5
sg13
I00
sg14
Nsg15
I11
sba(iGraph
Node
p1659
(dp1660
g8
(lp1661
sg10
Nsg11
g12
sS'r'
I5
sg13
I00
sg14
Nsg15
I12
sba(iGraph
Node
p1662
(dp1663
g8
(lp1664
sg10
Nsg11
g12
sS'r'
I5
sg13
I00
sg14
Nsg15
I13
sba(iGraph
Node
p1665
(dp1666
g8
(lp1667
sg10
Nsg11
g12
sS'r'
I5
sg13
I00
sg14
Nsg15
I14
sbasg58
I0
sg59
I0
sg60
Nsg61
I0
sg62
I15
sg63
I5
sg64
I0
sg65
(lp1668
sg67
I0
sg68
(lp1669
sba(iGraph
Graph
p1670
(dp1671
g4
(lp1672
(iGraph
Node
p1673
(dp1674
g8
(lp1675
sg10
Nsg11
g12
sS'r'
I5
sg13
I00
sg14
Nsg15
I0
sba(iGraph
Node
p1676
(dp1677
g8
(lp1678
sg10
Nsg11
g12
sS'r'
I5
sg13
I00
sg14
Nsg15
I1
sba(iGraph
Node
p1679
(dp1680
g8
(lp1681
sg10
Nsg11
g12
sS'r'
I5
sg13
I00
sg14
Nsg15
I2
sba(iGraph
Node
p1682
(dp1683
g8
(lp1684
sg10
Nsg11
g12
sS'r'
I5
sg13
I00
sg14
Nsg15
I3
sba(iGraph
Node
p1685
(dp1686
g8
(lp1687
sg10
Nsg11
g12
sS'r'
I5
sg13
I00
sg14
Nsg15
I4
sba(iGraph
Node
p1688
(dp1689
g8
(lp1690
sg10
Nsg11
g12
sS'r'
I5
sg13
I00
sg14
Nsg15
I5
sba(iGraph
Node
p1691
(dp1692
g8
(lp1693
sg10
Nsg11
g12
sS'r'
I5
sg13
I00
sg14
Nsg15
I6
sba(iGraph
Node
p1694
(dp1695
g8
(lp1696
sg10
Nsg11
g12
sS'r'
I5
sg13
I00
sg14
Nsg15
I7
sba(iGraph
Node
p1697
(dp1698
g8
(lp1699
sg10
Nsg11
g12
sS'r'
I5
sg13
I00
sg14
Nsg15
I8
sba(iGraph
Node
p1700
(dp1701
g8
(lp1702
sg10
Nsg11
g12
sS'r'
I5
sg13
I00
sg14
Nsg15
I9
sba(iGraph
Node
p1703
(dp1704
g8
(lp1705
sg10
Nsg11
g12
sS'r'
I5
sg13
I00
sg14
Nsg15
I10
sba(iGraph
Node
p1706
(dp1707
g8
(lp1708
sg10
Nsg11
g12
sS'r'
I5
sg13
I00
sg14
Nsg15
I11
sba(iGraph
Node
p1709
(dp1710
g8
(lp1711
sg10
Nsg11
g12
sS'r'
I5
sg13
I00
sg14
Nsg15
I12
sba(iGraph
Node
p1712
(dp1713
g8
(lp1714
sg10
Nsg11
g12
sS'r'
I5
sg13
I00
sg14
Nsg15
I13
sba(iGraph
Node
p1715
(dp1716
g8
(lp1717
sg10
Nsg11
g12
sS'r'
I5
sg13
I00
sg14
Nsg15
I14
sbasg58
I0
sg59
I0
sg60
Nsg61
I0
sg62
I15
sg63
I5
sg64
I0
sg65
(lp1718
sg67
I0
sg68
(lp1719
sba(iGraph
Graph
p1720
(dp1721
g4
(lp1722
(iGraph
Node
p1723
(dp1724
g8
(lp1725
sg10
Nsg11
g12
sS'r'
I5
sg13
I00
sg14
Nsg15
I0
sba(iGraph
Node
p1726
(dp1727
g8
(lp1728
sg10
Nsg11
g12
sS'r'
I5
sg13
I00
sg14
Nsg15
I1
sba(iGraph
Node
p1729
(dp1730
g8
(lp1731
sg10
Nsg11
g12
sS'r'
I5
sg13
I00
sg14
Nsg15
I2
sba(iGraph
Node
p1732
(dp1733
g8
(lp1734
sg10
Nsg11
g12
sS'r'
I5
sg13
I00
sg14
Nsg15
I3
sba(iGraph
Node
p1735
(dp1736
g8
(lp1737
sg10
Nsg11
g12
sS'r'
I5
sg13
I00
sg14
Nsg15
I4
sba(iGraph
Node
p1738
(dp1739
g8
(lp1740
sg10
Nsg11
g12
sS'r'
I5
sg13
I00
sg14
Nsg15
I5
sba(iGraph
Node
p1741
(dp1742
g8
(lp1743
sg10
Nsg11
g12
sS'r'
I5
sg13
I00
sg14
Nsg15
I6
sba(iGraph
Node
p1744
(dp1745
g8
(lp1746
sg10
Nsg11
g12
sS'r'
I5
sg13
I00
sg14
Nsg15
I7
sba(iGraph
Node
p1747
(dp1748
g8
(lp1749
sg10
Nsg11
g12
sS'r'
I5
sg13
I00
sg14
Nsg15
I8
sba(iGraph
Node
p1750
(dp1751
g8
(lp1752
sg10
Nsg11
g12
sS'r'
I5
sg13
I00
sg14
Nsg15
I9
sba(iGraph
Node
p1753
(dp1754
g8
(lp1755
sg10
Nsg11
g12
sS'r'
I5
sg13
I00
sg14
Nsg15
I10
sba(iGraph
Node
p1756
(dp1757
g8
(lp1758
sg10
Nsg11
g12
sS'r'
I5
sg13
I00
sg14
Nsg15
I11
sba(iGraph
Node
p1759
(dp1760
g8
(lp1761
sg10
Nsg11
g12
sS'r'
I5
sg13
I00
sg14
Nsg15
I12
sba(iGraph
Node
p1762
(dp1763
g8
(lp1764
sg10
Nsg11
g12
sS'r'
I5
sg13
I00
sg14
Nsg15
I13
sba(iGraph
Node
p1765
(dp1766
g8
(lp1767
sg10
Nsg11
g12
sS'r'
I5
sg13
I00
sg14
Nsg15
I14
sbasg58
I0
sg59
I0
sg60
Nsg61
I0
sg62
I15
sg63
I5
sg64
I0
sg65
(lp1768
sg67
I0
sg68
(lp1769
sba(iGraph
Graph
p1770
(dp1771
g4
(lp1772
(iGraph
Node
p1773
(dp1774
g8
(lp1775
sg10
Nsg11
g12
sS'r'
I5
sg13
I00
sg14
Nsg15
I0
sba(iGraph
Node
p1776
(dp1777
g8
(lp1778
sg10
Nsg11
g12
sS'r'
I5
sg13
I00
sg14
Nsg15
I1
sba(iGraph
Node
p1779
(dp1780
g8
(lp1781
sg10
Nsg11
g12
sS'r'
I5
sg13
I00
sg14
Nsg15
I2
sba(iGraph
Node
p1782
(dp1783
g8
(lp1784
sg10
Nsg11
g12
sS'r'
I5
sg13
I00
sg14
Nsg15
I3
sba(iGraph
Node
p1785
(dp1786
g8
(lp1787
sg10
Nsg11
g12
sS'r'
I5
sg13
I00
sg14
Nsg15
I4
sba(iGraph
Node
p1788
(dp1789
g8
(lp1790
sg10
Nsg11
g12
sS'r'
I5
sg13
I00
sg14
Nsg15
I5
sba(iGraph
Node
p1791
(dp1792
g8
(lp1793
sg10
Nsg11
g12
sS'r'
I5
sg13
I00
sg14
Nsg15
I6
sba(iGraph
Node
p1794
(dp1795
g8
(lp1796
sg10
Nsg11
g12
sS'r'
I5
sg13
I00
sg14
Nsg15
I7
sba(iGraph
Node
p1797
(dp1798
g8
(lp1799
sg10
Nsg11
g12
sS'r'
I5
sg13
I00
sg14
Nsg15
I8
sba(iGraph
Node
p1800
(dp1801
g8
(lp1802
sg10
Nsg11
g12
sS'r'
I5
sg13
I00
sg14
Nsg15
I9
sba(iGraph
Node
p1803
(dp1804
g8
(lp1805
sg10
Nsg11
g12
sS'r'
I5
sg13
I00
sg14
Nsg15
I10
sba(iGraph
Node
p1806
(dp1807
g8
(lp1808
sg10
Nsg11
g12
sS'r'
I5
sg13
I00
sg14
Nsg15
I11
sba(iGraph
Node
p1809
(dp1810
g8
(lp1811
sg10
Nsg11
g12
sS'r'
I5
sg13
I00
sg14
Nsg15
I12
sba(iGraph
Node
p1812
(dp1813
g8
(lp1814
sg10
Nsg11
g12
sS'r'
I5
sg13
I00
sg14
Nsg15
I13
sba(iGraph
Node
p1815
(dp1816
g8
(lp1817
sg10
Nsg11
g12
sS'r'
I5
sg13
I00
sg14
Nsg15
I14
sbasg58
I0
sg59
I0
sg60
Nsg61
I0
sg62
I15
sg63
I5
sg64
I0
sg65
(lp1818
sg67
I0
sg68
(lp1819
sba(iGraph
Graph
p1820
(dp1821
g4
(lp1822
(iGraph
Node
p1823
(dp1824
g8
(lp1825
sg10
Nsg11
g12
sS'r'
I5
sg13
I00
sg14
Nsg15
I0
sba(iGraph
Node
p1826
(dp1827
g8
(lp1828
sg10
Nsg11
g12
sS'r'
I5
sg13
I00
sg14
Nsg15
I1
sba(iGraph
Node
p1829
(dp1830
g8
(lp1831
sg10
Nsg11
g12
sS'r'
I5
sg13
I00
sg14
Nsg15
I2
sba(iGraph
Node
p1832
(dp1833
g8
(lp1834
sg10
Nsg11
g12
sS'r'
I5
sg13
I00
sg14
Nsg15
I3
sba(iGraph
Node
p1835
(dp1836
g8
(lp1837
sg10
Nsg11
g12
sS'r'
I5
sg13
I00
sg14
Nsg15
I4
sba(iGraph
Node
p1838
(dp1839
g8
(lp1840
sg10
Nsg11
g12
sS'r'
I5
sg13
I00
sg14
Nsg15
I5
sba(iGraph
Node
p1841
(dp1842
g8
(lp1843
sg10
Nsg11
g12
sS'r'
I5
sg13
I00
sg14
Nsg15
I6
sba(iGraph
Node
p1844
(dp1845
g8
(lp1846
sg10
Nsg11
g12
sS'r'
I5
sg13
I00
sg14
Nsg15
I7
sba(iGraph
Node
p1847
(dp1848
g8
(lp1849
sg10
Nsg11
g12
sS'r'
I5
sg13
I00
sg14
Nsg15
I8
sba(iGraph
Node
p1850
(dp1851
g8
(lp1852
sg10
Nsg11
g12
sS'r'
I5
sg13
I00
sg14
Nsg15
I9
sba(iGraph
Node
p1853
(dp1854
g8
(lp1855
sg10
Nsg11
g12
sS'r'
I5
sg13
I00
sg14
Nsg15
I10
sba(iGraph
Node
p1856
(dp1857
g8
(lp1858
sg10
Nsg11
g12
sS'r'
I5
sg13
I00
sg14
Nsg15
I11
sba(iGraph
Node
p1859
(dp1860
g8
(lp1861
sg10
Nsg11
g12
sS'r'
I5
sg13
I00
sg14
Nsg15
I12
sba(iGraph
Node
p1862
(dp1863
g8
(lp1864
sg10
Nsg11
g12
sS'r'
I5
sg13
I00
sg14
Nsg15
I13
sba(iGraph
Node
p1865
(dp1866
g8
(lp1867
sg10
Nsg11
g12
sS'r'
I5
sg13
I00
sg14
Nsg15
I14
sbasg58
I0
sg59
I0
sg60
Nsg61
I0
sg62
I15
sg63
I5
sg64
I0
sg65
(lp1868
sg67
I0
sg68
(lp1869
sba(iGraph
Graph
p1870
(dp1871
g4
(lp1872
(iGraph
Node
p1873
(dp1874
g8
(lp1875
sg10
Nsg11
g12
sS'r'
I5
sg13
I00
sg14
Nsg15
I0
sba(iGraph
Node
p1876
(dp1877
g8
(lp1878
sg10
Nsg11
g12
sS'r'
I5
sg13
I00
sg14
Nsg15
I1
sba(iGraph
Node
p1879
(dp1880
g8
(lp1881
sg10
Nsg11
g12
sS'r'
I5
sg13
I00
sg14
Nsg15
I2
sba(iGraph
Node
p1882
(dp1883
g8
(lp1884
sg10
Nsg11
g12
sS'r'
I5
sg13
I00
sg14
Nsg15
I3
sba(iGraph
Node
p1885
(dp1886
g8
(lp1887
sg10
Nsg11
g12
sS'r'
I5
sg13
I00
sg14
Nsg15
I4
sba(iGraph
Node
p1888
(dp1889
g8
(lp1890
sg10
Nsg11
g12
sS'r'
I5
sg13
I00
sg14
Nsg15
I5
sba(iGraph
Node
p1891
(dp1892
g8
(lp1893
sg10
Nsg11
g12
sS'r'
I5
sg13
I00
sg14
Nsg15
I6
sba(iGraph
Node
p1894
(dp1895
g8
(lp1896
sg10
Nsg11
g12
sS'r'
I5
sg13
I00
sg14
Nsg15
I7
sba(iGraph
Node
p1897
(dp1898
g8
(lp1899
sg10
Nsg11
g12
sS'r'
I5
sg13
I00
sg14
Nsg15
I8
sba(iGraph
Node
p1900
(dp1901
g8
(lp1902
sg10
Nsg11
g12
sS'r'
I5
sg13
I00
sg14
Nsg15
I9
sba(iGraph
Node
p1903
(dp1904
g8
(lp1905
sg10
Nsg11
g12
sS'r'
I5
sg13
I00
sg14
Nsg15
I10
sba(iGraph
Node
p1906
(dp1907
g8
(lp1908
sg10
Nsg11
g12
sS'r'
I5
sg13
I00
sg14
Nsg15
I11
sba(iGraph
Node
p1909
(dp1910
g8
(lp1911
sg10
Nsg11
g12
sS'r'
I5
sg13
I00
sg14
Nsg15
I12
sba(iGraph
Node
p1912
(dp1913
g8
(lp1914
sg10
Nsg11
g12
sS'r'
I5
sg13
I00
sg14
Nsg15
I13
sba(iGraph
Node
p1915
(dp1916
g8
(lp1917
sg10
Nsg11
g12
sS'r'
I5
sg13
I00
sg14
Nsg15
I14
sbasg58
I0
sg59
I0
sg60
Nsg61
I0
sg62
I15
sg63
I5
sg64
I0
sg65
(lp1918
sg67
I0
sg68
(lp1919
sba(iGraph
Graph
p1920
(dp1921
g4
(lp1922
(iGraph
Node
p1923
(dp1924
g8
(lp1925
sg10
Nsg11
g12
sS'r'
I5
sg13
I00
sg14
Nsg15
I0
sba(iGraph
Node
p1926
(dp1927
g8
(lp1928
sg10
Nsg11
g12
sS'r'
I5
sg13
I00
sg14
Nsg15
I1
sba(iGraph
Node
p1929
(dp1930
g8
(lp1931
sg10
Nsg11
g12
sS'r'
I5
sg13
I00
sg14
Nsg15
I2
sba(iGraph
Node
p1932
(dp1933
g8
(lp1934
sg10
Nsg11
g12
sS'r'
I5
sg13
I00
sg14
Nsg15
I3
sba(iGraph
Node
p1935
(dp1936
g8
(lp1937
sg10
Nsg11
g12
sS'r'
I5
sg13
I00
sg14
Nsg15
I4
sba(iGraph
Node
p1938
(dp1939
g8
(lp1940
sg10
Nsg11
g12
sS'r'
I5
sg13
I00
sg14
Nsg15
I5
sba(iGraph
Node
p1941
(dp1942
g8
(lp1943
sg10
Nsg11
g12
sS'r'
I5
sg13
I00
sg14
Nsg15
I6
sba(iGraph
Node
p1944
(dp1945
g8
(lp1946
sg10
Nsg11
g12
sS'r'
I5
sg13
I00
sg14
Nsg15
I7
sba(iGraph
Node
p1947
(dp1948
g8
(lp1949
sg10
Nsg11
g12
sS'r'
I5
sg13
I00
sg14
Nsg15
I8
sba(iGraph
Node
p1950
(dp1951
g8
(lp1952
sg10
Nsg11
g12
sS'r'
I5
sg13
I00
sg14
Nsg15
I9
sba(iGraph
Node
p1953
(dp1954
g8
(lp1955
sg10
Nsg11
g12
sS'r'
I5
sg13
I00
sg14
Nsg15
I10
sba(iGraph
Node
p1956
(dp1957
g8
(lp1958
sg10
Nsg11
g12
sS'r'
I5
sg13
I00
sg14
Nsg15
I11
sba(iGraph
Node
p1959
(dp1960
g8
(lp1961
sg10
Nsg11
g12
sS'r'
I5
sg13
I00
sg14
Nsg15
I12
sba(iGraph
Node
p1962
(dp1963
g8
(lp1964
sg10
Nsg11
g12
sS'r'
I5
sg13
I00
sg14
Nsg15
I13
sba(iGraph
Node
p1965
(dp1966
g8
(lp1967
sg10
Nsg11
g12
sS'r'
I5
sg13
I00
sg14
Nsg15
I14
sbasg58
I0
sg59
I0
sg60
Nsg61
I0
sg62
I15
sg63
I5
sg64
I0
sg65
(lp1968
sg67
I0
sg68
(lp1969
sba(iGraph
Graph
p1970
(dp1971
g4
(lp1972
(iGraph
Node
p1973
(dp1974
g8
(lp1975
sg10
Nsg11
g12
sS'r'
I5
sg13
I00
sg14
Nsg15
I0
sba(iGraph
Node
p1976
(dp1977
g8
(lp1978
sg10
Nsg11
g12
sS'r'
I5
sg13
I00
sg14
Nsg15
I1
sba(iGraph
Node
p1979
(dp1980
g8
(lp1981
sg10
Nsg11
g12
sS'r'
I5
sg13
I00
sg14
Nsg15
I2
sba(iGraph
Node
p1982
(dp1983
g8
(lp1984
sg10
Nsg11
g12
sS'r'
I5
sg13
I00
sg14
Nsg15
I3
sba(iGraph
Node
p1985
(dp1986
g8
(lp1987
sg10
Nsg11
g12
sS'r'
I5
sg13
I00
sg14
Nsg15
I4
sba(iGraph
Node
p1988
(dp1989
g8
(lp1990
sg10
Nsg11
g12
sS'r'
I5
sg13
I00
sg14
Nsg15
I5
sba(iGraph
Node
p1991
(dp1992
g8
(lp1993
sg10
Nsg11
g12
sS'r'
I5
sg13
I00
sg14
Nsg15
I6
sba(iGraph
Node
p1994
(dp1995
g8
(lp1996
sg10
Nsg11
g12
sS'r'
I5
sg13
I00
sg14
Nsg15
I7
sba(iGraph
Node
p1997
(dp1998
g8
(lp1999
sg10
Nsg11
g12
sS'r'
I5
sg13
I00
sg14
Nsg15
I8
sba(iGraph
Node
p2000
(dp2001
g8
(lp2002
sg10
Nsg11
g12
sS'r'
I5
sg13
I00
sg14
Nsg15
I9
sba(iGraph
Node
p2003
(dp2004
g8
(lp2005
sg10
Nsg11
g12
sS'r'
I5
sg13
I00
sg14
Nsg15
I10
sba(iGraph
Node
p2006
(dp2007
g8
(lp2008
sg10
Nsg11
g12
sS'r'
I5
sg13
I00
sg14
Nsg15
I11
sba(iGraph
Node
p2009
(dp2010
g8
(lp2011
sg10
Nsg11
g12
sS'r'
I5
sg13
I00
sg14
Nsg15
I12
sba(iGraph
Node
p2012
(dp2013
g8
(lp2014
sg10
Nsg11
g12
sS'r'
I5
sg13
I00
sg14
Nsg15
I13
sba(iGraph
Node
p2015
(dp2016
g8
(lp2017
sg10
Nsg11
g12
sS'r'
I5
sg13
I00
sg14
Nsg15
I14
sbasg58
I0
sg59
I0
sg60
Nsg61
I0
sg62
I15
sg63
I5
sg64
I0
sg65
(lp2018
sg67
I0
sg68
(lp2019
sba(iGraph
Graph
p2020
(dp2021
g4
(lp2022
(iGraph
Node
p2023
(dp2024
g8
(lp2025
sg10
Nsg11
g12
sS'r'
I5
sg13
I00
sg14
Nsg15
I0
sba(iGraph
Node
p2026
(dp2027
g8
(lp2028
sg10
Nsg11
g12
sS'r'
I5
sg13
I00
sg14
Nsg15
I1
sba(iGraph
Node
p2029
(dp2030
g8
(lp2031
sg10
Nsg11
g12
sS'r'
I5
sg13
I00
sg14
Nsg15
I2
sba(iGraph
Node
p2032
(dp2033
g8
(lp2034
sg10
Nsg11
g12
sS'r'
I5
sg13
I00
sg14
Nsg15
I3
sba(iGraph
Node
p2035
(dp2036
g8
(lp2037
sg10
Nsg11
g12
sS'r'
I5
sg13
I00
sg14
Nsg15
I4
sba(iGraph
Node
p2038
(dp2039
g8
(lp2040
sg10
Nsg11
g12
sS'r'
I5
sg13
I00
sg14
Nsg15
I5
sba(iGraph
Node
p2041
(dp2042
g8
(lp2043
sg10
Nsg11
g12
sS'r'
I5
sg13
I00
sg14
Nsg15
I6
sba(iGraph
Node
p2044
(dp2045
g8
(lp2046
sg10
Nsg11
g12
sS'r'
I5
sg13
I00
sg14
Nsg15
I7
sba(iGraph
Node
p2047
(dp2048
g8
(lp2049
sg10
Nsg11
g12
sS'r'
I5
sg13
I00
sg14
Nsg15
I8
sba(iGraph
Node
p2050
(dp2051
g8
(lp2052
sg10
Nsg11
g12
sS'r'
I5
sg13
I00
sg14
Nsg15
I9
sba(iGraph
Node
p2053
(dp2054
g8
(lp2055
sg10
Nsg11
g12
sS'r'
I5
sg13
I00
sg14
Nsg15
I10
sba(iGraph
Node
p2056
(dp2057
g8
(lp2058
sg10
Nsg11
g12
sS'r'
I5
sg13
I00
sg14
Nsg15
I11
sba(iGraph
Node
p2059
(dp2060
g8
(lp2061
sg10
Nsg11
g12
sS'r'
I5
sg13
I00
sg14
Nsg15
I12
sba(iGraph
Node
p2062
(dp2063
g8
(lp2064
sg10
Nsg11
g12
sS'r'
I5
sg13
I00
sg14
Nsg15
I13
sba(iGraph
Node
p2065
(dp2066
g8
(lp2067
sg10
Nsg11
g12
sS'r'
I5
sg13
I00
sg14
Nsg15
I14
sbasg58
I0
sg59
I0
sg60
Nsg61
I0
sg62
I15
sg63
I5
sg64
I0
sg65
(lp2068
sg67
I0
sg68
(lp2069
sba(iGraph
Graph
p2070
(dp2071
g4
(lp2072
(iGraph
Node
p2073
(dp2074
g8
(lp2075
sg10
Nsg11
g12
sS'r'
I5
sg13
I00
sg14
Nsg15
I0
sba(iGraph
Node
p2076
(dp2077
g8
(lp2078
sg10
Nsg11
g12
sS'r'
I5
sg13
I00
sg14
Nsg15
I1
sba(iGraph
Node
p2079
(dp2080
g8
(lp2081
sg10
Nsg11
g12
sS'r'
I5
sg13
I00
sg14
Nsg15
I2
sba(iGraph
Node
p2082
(dp2083
g8
(lp2084
sg10
Nsg11
g12
sS'r'
I5
sg13
I00
sg14
Nsg15
I3
sba(iGraph
Node
p2085
(dp2086
g8
(lp2087
sg10
Nsg11
g12
sS'r'
I5
sg13
I00
sg14
Nsg15
I4
sba(iGraph
Node
p2088
(dp2089
g8
(lp2090
sg10
Nsg11
g12
sS'r'
I5
sg13
I00
sg14
Nsg15
I5
sba(iGraph
Node
p2091
(dp2092
g8
(lp2093
sg10
Nsg11
g12
sS'r'
I5
sg13
I00
sg14
Nsg15
I6
sba(iGraph
Node
p2094
(dp2095
g8
(lp2096
sg10
Nsg11
g12
sS'r'
I5
sg13
I00
sg14
Nsg15
I7
sba(iGraph
Node
p2097
(dp2098
g8
(lp2099
sg10
Nsg11
g12
sS'r'
I5
sg13
I00
sg14
Nsg15
I8
sba(iGraph
Node
p2100
(dp2101
g8
(lp2102
sg10
Nsg11
g12
sS'r'
I5
sg13
I00
sg14
Nsg15
I9
sba(iGraph
Node
p2103
(dp2104
g8
(lp2105
sg10
Nsg11
g12
sS'r'
I5
sg13
I00
sg14
Nsg15
I10
sba(iGraph
Node
p2106
(dp2107
g8
(lp2108
sg10
Nsg11
g12
sS'r'
I5
sg13
I00
sg14
Nsg15
I11
sba(iGraph
Node
p2109
(dp2110
g8
(lp2111
sg10
Nsg11
g12
sS'r'
I5
sg13
I00
sg14
Nsg15
I12
sba(iGraph
Node
p2112
(dp2113
g8
(lp2114
sg10
Nsg11
g12
sS'r'
I5
sg13
I00
sg14
Nsg15
I13
sba(iGraph
Node
p2115
(dp2116
g8
(lp2117
sg10
Nsg11
g12
sS'r'
I5
sg13
I00
sg14
Nsg15
I14
sbasg58
I0
sg59
I0
sg60
Nsg61
I0
sg62
I15
sg63
I5
sg64
I0
sg65
(lp2118
sg67
I0
sg68
(lp2119
sba(iGraph
Graph
p2120
(dp2121
g4
(lp2122
(iGraph
Node
p2123
(dp2124
g8
(lp2125
sg10
Nsg11
g12
sS'r'
I5
sg13
I00
sg14
Nsg15
I0
sba(iGraph
Node
p2126
(dp2127
g8
(lp2128
sg10
Nsg11
g12
sS'r'
I5
sg13
I00
sg14
Nsg15
I1
sba(iGraph
Node
p2129
(dp2130
g8
(lp2131
sg10
Nsg11
g12
sS'r'
I5
sg13
I00
sg14
Nsg15
I2
sba(iGraph
Node
p2132
(dp2133
g8
(lp2134
sg10
Nsg11
g12
sS'r'
I5
sg13
I00
sg14
Nsg15
I3
sba(iGraph
Node
p2135
(dp2136
g8
(lp2137
sg10
Nsg11
g12
sS'r'
I5
sg13
I00
sg14
Nsg15
I4
sba(iGraph
Node
p2138
(dp2139
g8
(lp2140
sg10
Nsg11
g12
sS'r'
I5
sg13
I00
sg14
Nsg15
I5
sba(iGraph
Node
p2141
(dp2142
g8
(lp2143
sg10
Nsg11
g12
sS'r'
I5
sg13
I00
sg14
Nsg15
I6
sba(iGraph
Node
p2144
(dp2145
g8
(lp2146
sg10
Nsg11
g12
sS'r'
I5
sg13
I00
sg14
Nsg15
I7
sba(iGraph
Node
p2147
(dp2148
g8
(lp2149
sg10
Nsg11
g12
sS'r'
I5
sg13
I00
sg14
Nsg15
I8
sba(iGraph
Node
p2150
(dp2151
g8
(lp2152
sg10
Nsg11
g12
sS'r'
I5
sg13
I00
sg14
Nsg15
I9
sba(iGraph
Node
p2153
(dp2154
g8
(lp2155
sg10
Nsg11
g12
sS'r'
I5
sg13
I00
sg14
Nsg15
I10
sba(iGraph
Node
p2156
(dp2157
g8
(lp2158
sg10
Nsg11
g12
sS'r'
I5
sg13
I00
sg14
Nsg15
I11
sba(iGraph
Node
p2159
(dp2160
g8
(lp2161
sg10
Nsg11
g12
sS'r'
I5
sg13
I00
sg14
Nsg15
I12
sba(iGraph
Node
p2162
(dp2163
g8
(lp2164
sg10
Nsg11
g12
sS'r'
I5
sg13
I00
sg14
Nsg15
I13
sba(iGraph
Node
p2165
(dp2166
g8
(lp2167
sg10
Nsg11
g12
sS'r'
I5
sg13
I00
sg14
Nsg15
I14
sbasg58
I0
sg59
I0
sg60
Nsg61
I0
sg62
I15
sg63
I5
sg64
I0
sg65
(lp2168
sg67
I0
sg68
(lp2169
sba(iGraph
Graph
p2170
(dp2171
g4
(lp2172
(iGraph
Node
p2173
(dp2174
g8
(lp2175
sg10
Nsg11
g12
sS'r'
I5
sg13
I00
sg14
Nsg15
I0
sba(iGraph
Node
p2176
(dp2177
g8
(lp2178
sg10
Nsg11
g12
sS'r'
I5
sg13
I00
sg14
Nsg15
I1
sba(iGraph
Node
p2179
(dp2180
g8
(lp2181
sg10
Nsg11
g12
sS'r'
I5
sg13
I00
sg14
Nsg15
I2
sba(iGraph
Node
p2182
(dp2183
g8
(lp2184
sg10
Nsg11
g12
sS'r'
I5
sg13
I00
sg14
Nsg15
I3
sba(iGraph
Node
p2185
(dp2186
g8
(lp2187
sg10
Nsg11
g12
sS'r'
I5
sg13
I00
sg14
Nsg15
I4
sba(iGraph
Node
p2188
(dp2189
g8
(lp2190
sg10
Nsg11
g12
sS'r'
I5
sg13
I00
sg14
Nsg15
I5
sba(iGraph
Node
p2191
(dp2192
g8
(lp2193
sg10
Nsg11
g12
sS'r'
I5
sg13
I00
sg14
Nsg15
I6
sba(iGraph
Node
p2194
(dp2195
g8
(lp2196
sg10
Nsg11
g12
sS'r'
I5
sg13
I00
sg14
Nsg15
I7
sba(iGraph
Node
p2197
(dp2198
g8
(lp2199
sg10
Nsg11
g12
sS'r'
I5
sg13
I00
sg14
Nsg15
I8
sba(iGraph
Node
p2200
(dp2201
g8
(lp2202
sg10
Nsg11
g12
sS'r'
I5
sg13
I00
sg14
Nsg15
I9
sba(iGraph
Node
p2203
(dp2204
g8
(lp2205
sg10
Nsg11
g12
sS'r'
I5
sg13
I00
sg14
Nsg15
I10
sba(iGraph
Node
p2206
(dp2207
g8
(lp2208
sg10
Nsg11
g12
sS'r'
I5
sg13
I00
sg14
Nsg15
I11
sba(iGraph
Node
p2209
(dp2210
g8
(lp2211
sg10
Nsg11
g12
sS'r'
I5
sg13
I00
sg14
Nsg15
I12
sba(iGraph
Node
p2212
(dp2213
g8
(lp2214
sg10
Nsg11
g12
sS'r'
I5
sg13
I00
sg14
Nsg15
I13
sba(iGraph
Node
p2215
(dp2216
g8
(lp2217
sg10
Nsg11
g12
sS'r'
I5
sg13
I00
sg14
Nsg15
I14
sbasg58
I0
sg59
I0
sg60
Nsg61
I0
sg62
I15
sg63
I5
sg64
I0
sg65
(lp2218
sg67
I0
sg68
(lp2219
sba(iGraph
Graph
p2220
(dp2221
g4
(lp2222
(iGraph
Node
p2223
(dp2224
g8
(lp2225
sg10
Nsg11
g12
sS'r'
I5
sg13
I00
sg14
Nsg15
I0
sba(iGraph
Node
p2226
(dp2227
g8
(lp2228
sg10
Nsg11
g12
sS'r'
I5
sg13
I00
sg14
Nsg15
I1
sba(iGraph
Node
p2229
(dp2230
g8
(lp2231
sg10
Nsg11
g12
sS'r'
I5
sg13
I00
sg14
Nsg15
I2
sba(iGraph
Node
p2232
(dp2233
g8
(lp2234
sg10
Nsg11
g12
sS'r'
I5
sg13
I00
sg14
Nsg15
I3
sba(iGraph
Node
p2235
(dp2236
g8
(lp2237
sg10
Nsg11
g12
sS'r'
I5
sg13
I00
sg14
Nsg15
I4
sba(iGraph
Node
p2238
(dp2239
g8
(lp2240
sg10
Nsg11
g12
sS'r'
I5
sg13
I00
sg14
Nsg15
I5
sba(iGraph
Node
p2241
(dp2242
g8
(lp2243
sg10
Nsg11
g12
sS'r'
I5
sg13
I00
sg14
Nsg15
I6
sba(iGraph
Node
p2244
(dp2245
g8
(lp2246
sg10
Nsg11
g12
sS'r'
I5
sg13
I00
sg14
Nsg15
I7
sba(iGraph
Node
p2247
(dp2248
g8
(lp2249
sg10
Nsg11
g12
sS'r'
I5
sg13
I00
sg14
Nsg15
I8
sba(iGraph
Node
p2250
(dp2251
g8
(lp2252
sg10
Nsg11
g12
sS'r'
I5
sg13
I00
sg14
Nsg15
I9
sba(iGraph
Node
p2253
(dp2254
g8
(lp2255
sg10
Nsg11
g12
sS'r'
I5
sg13
I00
sg14
Nsg15
I10
sba(iGraph
Node
p2256
(dp2257
g8
(lp2258
sg10
Nsg11
g12
sS'r'
I5
sg13
I00
sg14
Nsg15
I11
sba(iGraph
Node
p2259
(dp2260
g8
(lp2261
sg10
Nsg11
g12
sS'r'
I5
sg13
I00
sg14
Nsg15
I12
sba(iGraph
Node
p2262
(dp2263
g8
(lp2264
sg10
Nsg11
g12
sS'r'
I5
sg13
I00
sg14
Nsg15
I13
sba(iGraph
Node
p2265
(dp2266
g8
(lp2267
sg10
Nsg11
g12
sS'r'
I5
sg13
I00
sg14
Nsg15
I14
sbasg58
I0
sg59
I0
sg60
Nsg61
I0
sg62
I15
sg63
I5
sg64
I0
sg65
(lp2268
sg67
I0
sg68
(lp2269
sba(iGraph
Graph
p2270
(dp2271
g4
(lp2272
(iGraph
Node
p2273
(dp2274
g8
(lp2275
sg10
Nsg11
g12
sS'r'
I5
sg13
I00
sg14
Nsg15
I0
sba(iGraph
Node
p2276
(dp2277
g8
(lp2278
sg10
Nsg11
g12
sS'r'
I5
sg13
I00
sg14
Nsg15
I1
sba(iGraph
Node
p2279
(dp2280
g8
(lp2281
sg10
Nsg11
g12
sS'r'
I5
sg13
I00
sg14
Nsg15
I2
sba(iGraph
Node
p2282
(dp2283
g8
(lp2284
sg10
Nsg11
g12
sS'r'
I5
sg13
I00
sg14
Nsg15
I3
sba(iGraph
Node
p2285
(dp2286
g8
(lp2287
sg10
Nsg11
g12
sS'r'
I5
sg13
I00
sg14
Nsg15
I4
sba(iGraph
Node
p2288
(dp2289
g8
(lp2290
sg10
Nsg11
g12
sS'r'
I5
sg13
I00
sg14
Nsg15
I5
sba(iGraph
Node
p2291
(dp2292
g8
(lp2293
sg10
Nsg11
g12
sS'r'
I5
sg13
I00
sg14
Nsg15
I6
sba(iGraph
Node
p2294
(dp2295
g8
(lp2296
sg10
Nsg11
g12
sS'r'
I5
sg13
I00
sg14
Nsg15
I7
sba(iGraph
Node
p2297
(dp2298
g8
(lp2299
sg10
Nsg11
g12
sS'r'
I5
sg13
I00
sg14
Nsg15
I8
sba(iGraph
Node
p2300
(dp2301
g8
(lp2302
sg10
Nsg11
g12
sS'r'
I5
sg13
I00
sg14
Nsg15
I9
sba(iGraph
Node
p2303
(dp2304
g8
(lp2305
sg10
Nsg11
g12
sS'r'
I5
sg13
I00
sg14
Nsg15
I10
sba(iGraph
Node
p2306
(dp2307
g8
(lp2308
sg10
Nsg11
g12
sS'r'
I5
sg13
I00
sg14
Nsg15
I11
sba(iGraph
Node
p2309
(dp2310
g8
(lp2311
sg10
Nsg11
g12
sS'r'
I5
sg13
I00
sg14
Nsg15
I12
sba(iGraph
Node
p2312
(dp2313
g8
(lp2314
sg10
Nsg11
g12
sS'r'
I5
sg13
I00
sg14
Nsg15
I13
sba(iGraph
Node
p2315
(dp2316
g8
(lp2317
sg10
Nsg11
g12
sS'r'
I5
sg13
I00
sg14
Nsg15
I14
sbasg58
I0
sg59
I0
sg60
Nsg61
I0
sg62
I15
sg63
I5
sg64
I0
sg65
(lp2318
sg67
I0
sg68
(lp2319
sba(iGraph
Graph
p2320
(dp2321
g4
(lp2322
(iGraph
Node
p2323
(dp2324
g8
(lp2325
sg10
Nsg11
g12
sS'r'
I5
sg13
I00
sg14
Nsg15
I0
sba(iGraph
Node
p2326
(dp2327
g8
(lp2328
sg10
Nsg11
g12
sS'r'
I5
sg13
I00
sg14
Nsg15
I1
sba(iGraph
Node
p2329
(dp2330
g8
(lp2331
sg10
Nsg11
g12
sS'r'
I5
sg13
I00
sg14
Nsg15
I2
sba(iGraph
Node
p2332
(dp2333
g8
(lp2334
sg10
Nsg11
g12
sS'r'
I5
sg13
I00
sg14
Nsg15
I3
sba(iGraph
Node
p2335
(dp2336
g8
(lp2337
sg10
Nsg11
g12
sS'r'
I5
sg13
I00
sg14
Nsg15
I4
sba(iGraph
Node
p2338
(dp2339
g8
(lp2340
sg10
Nsg11
g12
sS'r'
I5
sg13
I00
sg14
Nsg15
I5
sba(iGraph
Node
p2341
(dp2342
g8
(lp2343
sg10
Nsg11
g12
sS'r'
I5
sg13
I00
sg14
Nsg15
I6
sba(iGraph
Node
p2344
(dp2345
g8
(lp2346
sg10
Nsg11
g12
sS'r'
I5
sg13
I00
sg14
Nsg15
I7
sba(iGraph
Node
p2347
(dp2348
g8
(lp2349
sg10
Nsg11
g12
sS'r'
I5
sg13
I00
sg14
Nsg15
I8
sba(iGraph
Node
p2350
(dp2351
g8
(lp2352
sg10
Nsg11
g12
sS'r'
I5
sg13
I00
sg14
Nsg15
I9
sba(iGraph
Node
p2353
(dp2354
g8
(lp2355
sg10
Nsg11
g12
sS'r'
I5
sg13
I00
sg14
Nsg15
I10
sba(iGraph
Node
p2356
(dp2357
g8
(lp2358
sg10
Nsg11
g12
sS'r'
I5
sg13
I00
sg14
Nsg15
I11
sba(iGraph
Node
p2359
(dp2360
g8
(lp2361
sg10
Nsg11
g12
sS'r'
I5
sg13
I00
sg14
Nsg15
I12
sba(iGraph
Node
p2362
(dp2363
g8
(lp2364
sg10
Nsg11
g12
sS'r'
I5
sg13
I00
sg14
Nsg15
I13
sba(iGraph
Node
p2365
(dp2366
g8
(lp2367
sg10
Nsg11
g12
sS'r'
I5
sg13
I00
sg14
Nsg15
I14
sbasg58
I0
sg59
I0
sg60
Nsg61
I0
sg62
I15
sg63
I5
sg64
I0
sg65
(lp2368
sg67
I0
sg68
(lp2369
sba(iGraph
Graph
p2370
(dp2371
g4
(lp2372
(iGraph
Node
p2373
(dp2374
g8
(lp2375
sg10
Nsg11
g12
sS'r'
I5
sg13
I00
sg14
Nsg15
I0
sba(iGraph
Node
p2376
(dp2377
g8
(lp2378
sg10
Nsg11
g12
sS'r'
I5
sg13
I00
sg14
Nsg15
I1
sba(iGraph
Node
p2379
(dp2380
g8
(lp2381
sg10
Nsg11
g12
sS'r'
I5
sg13
I00
sg14
Nsg15
I2
sba(iGraph
Node
p2382
(dp2383
g8
(lp2384
sg10
Nsg11
g12
sS'r'
I5
sg13
I00
sg14
Nsg15
I3
sba(iGraph
Node
p2385
(dp2386
g8
(lp2387
sg10
Nsg11
g12
sS'r'
I5
sg13
I00
sg14
Nsg15
I4
sba(iGraph
Node
p2388
(dp2389
g8
(lp2390
sg10
Nsg11
g12
sS'r'
I5
sg13
I00
sg14
Nsg15
I5
sba(iGraph
Node
p2391
(dp2392
g8
(lp2393
sg10
Nsg11
g12
sS'r'
I5
sg13
I00
sg14
Nsg15
I6
sba(iGraph
Node
p2394
(dp2395
g8
(lp2396
sg10
Nsg11
g12
sS'r'
I5
sg13
I00
sg14
Nsg15
I7
sba(iGraph
Node
p2397
(dp2398
g8
(lp2399
sg10
Nsg11
g12
sS'r'
I5
sg13
I00
sg14
Nsg15
I8
sba(iGraph
Node
p2400
(dp2401
g8
(lp2402
sg10
Nsg11
g12
sS'r'
I5
sg13
I00
sg14
Nsg15
I9
sba(iGraph
Node
p2403
(dp2404
g8
(lp2405
sg10
Nsg11
g12
sS'r'
I5
sg13
I00
sg14
Nsg15
I10
sba(iGraph
Node
p2406
(dp2407
g8
(lp2408
sg10
Nsg11
g12
sS'r'
I5
sg13
I00
sg14
Nsg15
I11
sba(iGraph
Node
p2409
(dp2410
g8
(lp2411
sg10
Nsg11
g12
sS'r'
I5
sg13
I00
sg14
Nsg15
I12
sba(iGraph
Node
p2412
(dp2413
g8
(lp2414
sg10
Nsg11
g12
sS'r'
I5
sg13
I00
sg14
Nsg15
I13
sba(iGraph
Node
p2415
(dp2416
g8
(lp2417
sg10
Nsg11
g12
sS'r'
I5
sg13
I00
sg14
Nsg15
I14
sbasg58
I0
sg59
I0
sg60
Nsg61
I0
sg62
I15
sg63
I5
sg64
I0
sg65
(lp2418
sg67
I0
sg68
(lp2419
sba(iGraph
Graph
p2420
(dp2421
g4
(lp2422
(iGraph
Node
p2423
(dp2424
g8
(lp2425
sg10
Nsg11
g12
sS'r'
I5
sg13
I00
sg14
Nsg15
I0
sba(iGraph
Node
p2426
(dp2427
g8
(lp2428
sg10
Nsg11
g12
sS'r'
I5
sg13
I00
sg14
Nsg15
I1
sba(iGraph
Node
p2429
(dp2430
g8
(lp2431
sg10
Nsg11
g12
sS'r'
I5
sg13
I00
sg14
Nsg15
I2
sba(iGraph
Node
p2432
(dp2433
g8
(lp2434
sg10
Nsg11
g12
sS'r'
I5
sg13
I00
sg14
Nsg15
I3
sba(iGraph
Node
p2435
(dp2436
g8
(lp2437
sg10
Nsg11
g12
sS'r'
I5
sg13
I00
sg14
Nsg15
I4
sba(iGraph
Node
p2438
(dp2439
g8
(lp2440
sg10
Nsg11
g12
sS'r'
I5
sg13
I00
sg14
Nsg15
I5
sba(iGraph
Node
p2441
(dp2442
g8
(lp2443
sg10
Nsg11
g12
sS'r'
I5
sg13
I00
sg14
Nsg15
I6
sba(iGraph
Node
p2444
(dp2445
g8
(lp2446
sg10
Nsg11
g12
sS'r'
I5
sg13
I00
sg14
Nsg15
I7
sba(iGraph
Node
p2447
(dp2448
g8
(lp2449
sg10
Nsg11
g12
sS'r'
I5
sg13
I00
sg14
Nsg15
I8
sba(iGraph
Node
p2450
(dp2451
g8
(lp2452
sg10
Nsg11
g12
sS'r'
I5
sg13
I00
sg14
Nsg15
I9
sba(iGraph
Node
p2453
(dp2454
g8
(lp2455
sg10
Nsg11
g12
sS'r'
I5
sg13
I00
sg14
Nsg15
I10
sba(iGraph
Node
p2456
(dp2457
g8
(lp2458
sg10
Nsg11
g12
sS'r'
I5
sg13
I00
sg14
Nsg15
I11
sba(iGraph
Node
p2459
(dp2460
g8
(lp2461
sg10
Nsg11
g12
sS'r'
I5
sg13
I00
sg14
Nsg15
I12
sba(iGraph
Node
p2462
(dp2463
g8
(lp2464
sg10
Nsg11
g12
sS'r'
I5
sg13
I00
sg14
Nsg15
I13
sba(iGraph
Node
p2465
(dp2466
g8
(lp2467
sg10
Nsg11
g12
sS'r'
I5
sg13
I00
sg14
Nsg15
I14
sbasg58
I0
sg59
I0
sg60
Nsg61
I0
sg62
I15
sg63
I5
sg64
I0
sg65
(lp2468
sg67
I0
sg68
(lp2469
sba(iGraph
Graph
p2470
(dp2471
g4
(lp2472
(iGraph
Node
p2473
(dp2474
g8
(lp2475
sg10
Nsg11
g12
sS'r'
I5
sg13
I00
sg14
Nsg15
I0
sba(iGraph
Node
p2476
(dp2477
g8
(lp2478
sg10
Nsg11
g12
sS'r'
I5
sg13
I00
sg14
Nsg15
I1
sba(iGraph
Node
p2479
(dp2480
g8
(lp2481
sg10
Nsg11
g12
sS'r'
I5
sg13
I00
sg14
Nsg15
I2
sba(iGraph
Node
p2482
(dp2483
g8
(lp2484
sg10
Nsg11
g12
sS'r'
I5
sg13
I00
sg14
Nsg15
I3
sba(iGraph
Node
p2485
(dp2486
g8
(lp2487
sg10
Nsg11
g12
sS'r'
I5
sg13
I00
sg14
Nsg15
I4
sba(iGraph
Node
p2488
(dp2489
g8
(lp2490
sg10
Nsg11
g12
sS'r'
I5
sg13
I00
sg14
Nsg15
I5
sba(iGraph
Node
p2491
(dp2492
g8
(lp2493
sg10
Nsg11
g12
sS'r'
I5
sg13
I00
sg14
Nsg15
I6
sba(iGraph
Node
p2494
(dp2495
g8
(lp2496
sg10
Nsg11
g12
sS'r'
I5
sg13
I00
sg14
Nsg15
I7
sba(iGraph
Node
p2497
(dp2498
g8
(lp2499
sg10
Nsg11
g12
sS'r'
I5
sg13
I00
sg14
Nsg15
I8
sba(iGraph
Node
p2500
(dp2501
g8
(lp2502
sg10
Nsg11
g12
sS'r'
I5
sg13
I00
sg14
Nsg15
I9
sba(iGraph
Node
p2503
(dp2504
g8
(lp2505
sg10
Nsg11
g12
sS'r'
I5
sg13
I00
sg14
Nsg15
I10
sba(iGraph
Node
p2506
(dp2507
g8
(lp2508
sg10
Nsg11
g12
sS'r'
I5
sg13
I00
sg14
Nsg15
I11
sba(iGraph
Node
p2509
(dp2510
g8
(lp2511
sg10
Nsg11
g12
sS'r'
I5
sg13
I00
sg14
Nsg15
I12
sba(iGraph
Node
p2512
(dp2513
g8
(lp2514
sg10
Nsg11
g12
sS'r'
I5
sg13
I00
sg14
Nsg15
I13
sba(iGraph
Node
p2515
(dp2516
g8
(lp2517
sg10
Nsg11
g12
sS'r'
I5
sg13
I00
sg14
Nsg15
I14
sbasg58
I0
sg59
I0
sg60
Nsg61
I0
sg62
I15
sg63
I5
sg64
I0
sg65
(lp2518
sg67
I0
sg68
(lp2519
sba(iGraph
Graph
p2520
(dp2521
g4
(lp2522
(iGraph
Node
p2523
(dp2524
g8
(lp2525
sg10
Nsg11
g12
sS'r'
I5
sg13
I00
sg14
Nsg15
I0
sba(iGraph
Node
p2526
(dp2527
g8
(lp2528
sg10
Nsg11
g12
sS'r'
I5
sg13
I00
sg14
Nsg15
I1
sba(iGraph
Node
p2529
(dp2530
g8
(lp2531
sg10
Nsg11
g12
sS'r'
I5
sg13
I00
sg14
Nsg15
I2
sba(iGraph
Node
p2532
(dp2533
g8
(lp2534
sg10
Nsg11
g12
sS'r'
I5
sg13
I00
sg14
Nsg15
I3
sba(iGraph
Node
p2535
(dp2536
g8
(lp2537
sg10
Nsg11
g12
sS'r'
I5
sg13
I00
sg14
Nsg15
I4
sba(iGraph
Node
p2538
(dp2539
g8
(lp2540
sg10
Nsg11
g12
sS'r'
I5
sg13
I00
sg14
Nsg15
I5
sba(iGraph
Node
p2541
(dp2542
g8
(lp2543
sg10
Nsg11
g12
sS'r'
I5
sg13
I00
sg14
Nsg15
I6
sba(iGraph
Node
p2544
(dp2545
g8
(lp2546
sg10
Nsg11
g12
sS'r'
I5
sg13
I00
sg14
Nsg15
I7
sba(iGraph
Node
p2547
(dp2548
g8
(lp2549
sg10
Nsg11
g12
sS'r'
I5
sg13
I00
sg14
Nsg15
I8
sba(iGraph
Node
p2550
(dp2551
g8
(lp2552
sg10
Nsg11
g12
sS'r'
I5
sg13
I00
sg14
Nsg15
I9
sba(iGraph
Node
p2553
(dp2554
g8
(lp2555
sg10
Nsg11
g12
sS'r'
I5
sg13
I00
sg14
Nsg15
I10
sba(iGraph
Node
p2556
(dp2557
g8
(lp2558
sg10
Nsg11
g12
sS'r'
I5
sg13
I00
sg14
Nsg15
I11
sba(iGraph
Node
p2559
(dp2560
g8
(lp2561
sg10
Nsg11
g12
sS'r'
I5
sg13
I00
sg14
Nsg15
I12
sba(iGraph
Node
p2562
(dp2563
g8
(lp2564
sg10
Nsg11
g12
sS'r'
I5
sg13
I00
sg14
Nsg15
I13
sba(iGraph
Node
p2565
(dp2566
g8
(lp2567
sg10
Nsg11
g12
sS'r'
I5
sg13
I00
sg14
Nsg15
I14
sbasg58
I0
sg59
I0
sg60
Nsg61
I0
sg62
I15
sg63
I5
sg64
I0
sg65
(lp2568
sg67
I0
sg68
(lp2569
sba(iGraph
Graph
p2570
(dp2571
g4
(lp2572
(iGraph
Node
p2573
(dp2574
g8
(lp2575
sg10
Nsg11
g12
sS'r'
I5
sg13
I00
sg14
Nsg15
I0
sba(iGraph
Node
p2576
(dp2577
g8
(lp2578
sg10
Nsg11
g12
sS'r'
I5
sg13
I00
sg14
Nsg15
I1
sba(iGraph
Node
p2579
(dp2580
g8
(lp2581
sg10
Nsg11
g12
sS'r'
I5
sg13
I00
sg14
Nsg15
I2
sba(iGraph
Node
p2582
(dp2583
g8
(lp2584
sg10
Nsg11
g12
sS'r'
I5
sg13
I00
sg14
Nsg15
I3
sba(iGraph
Node
p2585
(dp2586
g8
(lp2587
sg10
Nsg11
g12
sS'r'
I5
sg13
I00
sg14
Nsg15
I4
sba(iGraph
Node
p2588
(dp2589
g8
(lp2590
sg10
Nsg11
g12
sS'r'
I5
sg13
I00
sg14
Nsg15
I5
sba(iGraph
Node
p2591
(dp2592
g8
(lp2593
sg10
Nsg11
g12
sS'r'
I5
sg13
I00
sg14
Nsg15
I6
sba(iGraph
Node
p2594
(dp2595
g8
(lp2596
sg10
Nsg11
g12
sS'r'
I5
sg13
I00
sg14
Nsg15
I7
sba(iGraph
Node
p2597
(dp2598
g8
(lp2599
sg10
Nsg11
g12
sS'r'
I5
sg13
I00
sg14
Nsg15
I8
sba(iGraph
Node
p2600
(dp2601
g8
(lp2602
sg10
Nsg11
g12
sS'r'
I5
sg13
I00
sg14
Nsg15
I9
sba(iGraph
Node
p2603
(dp2604
g8
(lp2605
sg10
Nsg11
g12
sS'r'
I5
sg13
I00
sg14
Nsg15
I10
sba(iGraph
Node
p2606
(dp2607
g8
(lp2608
sg10
Nsg11
g12
sS'r'
I5
sg13
I00
sg14
Nsg15
I11
sba(iGraph
Node
p2609
(dp2610
g8
(lp2611
sg10
Nsg11
g12
sS'r'
I5
sg13
I00
sg14
Nsg15
I12
sba(iGraph
Node
p2612
(dp2613
g8
(lp2614
sg10
Nsg11
g12
sS'r'
I5
sg13
I00
sg14
Nsg15
I13
sba(iGraph
Node
p2615
(dp2616
g8
(lp2617
sg10
Nsg11
g12
sS'r'
I5
sg13
I00
sg14
Nsg15
I14
sbasg58
I0
sg59
I0
sg60
Nsg61
I0
sg62
I15
sg63
I5
sg64
I0
sg65
(lp2618
sg67
I0
sg68
(lp2619
sba(iGraph
Graph
p2620
(dp2621
g4
(lp2622
(iGraph
Node
p2623
(dp2624
g8
(lp2625
sg10
Nsg11
g12
sS'r'
I5
sg13
I00
sg14
Nsg15
I0
sba(iGraph
Node
p2626
(dp2627
g8
(lp2628
sg10
Nsg11
g12
sS'r'
I5
sg13
I00
sg14
Nsg15
I1
sba(iGraph
Node
p2629
(dp2630
g8
(lp2631
sg10
Nsg11
g12
sS'r'
I5
sg13
I00
sg14
Nsg15
I2
sba(iGraph
Node
p2632
(dp2633
g8
(lp2634
sg10
Nsg11
g12
sS'r'
I5
sg13
I00
sg14
Nsg15
I3
sba(iGraph
Node
p2635
(dp2636
g8
(lp2637
sg10
Nsg11
g12
sS'r'
I5
sg13
I00
sg14
Nsg15
I4
sba(iGraph
Node
p2638
(dp2639
g8
(lp2640
sg10
Nsg11
g12
sS'r'
I5
sg13
I00
sg14
Nsg15
I5
sba(iGraph
Node
p2641
(dp2642
g8
(lp2643
sg10
Nsg11
g12
sS'r'
I5
sg13
I00
sg14
Nsg15
I6
sba(iGraph
Node
p2644
(dp2645
g8
(lp2646
sg10
Nsg11
g12
sS'r'
I5
sg13
I00
sg14
Nsg15
I7
sba(iGraph
Node
p2647
(dp2648
g8
(lp2649
sg10
Nsg11
g12
sS'r'
I5
sg13
I00
sg14
Nsg15
I8
sba(iGraph
Node
p2650
(dp2651
g8
(lp2652
sg10
Nsg11
g12
sS'r'
I5
sg13
I00
sg14
Nsg15
I9
sba(iGraph
Node
p2653
(dp2654
g8
(lp2655
sg10
Nsg11
g12
sS'r'
I5
sg13
I00
sg14
Nsg15
I10
sba(iGraph
Node
p2656
(dp2657
g8
(lp2658
sg10
Nsg11
g12
sS'r'
I5
sg13
I00
sg14
Nsg15
I11
sba(iGraph
Node
p2659
(dp2660
g8
(lp2661
sg10
Nsg11
g12
sS'r'
I5
sg13
I00
sg14
Nsg15
I12
sba(iGraph
Node
p2662
(dp2663
g8
(lp2664
sg10
Nsg11
g12
sS'r'
I5
sg13
I00
sg14
Nsg15
I13
sba(iGraph
Node
p2665
(dp2666
g8
(lp2667
sg10
Nsg11
g12
sS'r'
I5
sg13
I00
sg14
Nsg15
I14
sbasg58
I0
sg59
I0
sg60
Nsg61
I0
sg62
I15
sg63
I5
sg64
I0
sg65
(lp2668
sg67
I0
sg68
(lp2669
sba(iGraph
Graph
p2670
(dp2671
g4
(lp2672
(iGraph
Node
p2673
(dp2674
g8
(lp2675
sg10
Nsg11
g12
sS'r'
I5
sg13
I00
sg14
Nsg15
I0
sba(iGraph
Node
p2676
(dp2677
g8
(lp2678
sg10
Nsg11
g12
sS'r'
I5
sg13
I00
sg14
Nsg15
I1
sba(iGraph
Node
p2679
(dp2680
g8
(lp2681
sg10
Nsg11
g12
sS'r'
I5
sg13
I00
sg14
Nsg15
I2
sba(iGraph
Node
p2682
(dp2683
g8
(lp2684
sg10
Nsg11
g12
sS'r'
I5
sg13
I00
sg14
Nsg15
I3
sba(iGraph
Node
p2685
(dp2686
g8
(lp2687
sg10
Nsg11
g12
sS'r'
I5
sg13
I00
sg14
Nsg15
I4
sba(iGraph
Node
p2688
(dp2689
g8
(lp2690
sg10
Nsg11
g12
sS'r'
I5
sg13
I00
sg14
Nsg15
I5
sba(iGraph
Node
p2691
(dp2692
g8
(lp2693
sg10
Nsg11
g12
sS'r'
I5
sg13
I00
sg14
Nsg15
I6
sba(iGraph
Node
p2694
(dp2695
g8
(lp2696
sg10
Nsg11
g12
sS'r'
I5
sg13
I00
sg14
Nsg15
I7
sba(iGraph
Node
p2697
(dp2698
g8
(lp2699
sg10
Nsg11
g12
sS'r'
I5
sg13
I00
sg14
Nsg15
I8
sba(iGraph
Node
p2700
(dp2701
g8
(lp2702
sg10
Nsg11
g12
sS'r'
I5
sg13
I00
sg14
Nsg15
I9
sba(iGraph
Node
p2703
(dp2704
g8
(lp2705
sg10
Nsg11
g12
sS'r'
I5
sg13
I00
sg14
Nsg15
I10
sba(iGraph
Node
p2706
(dp2707
g8
(lp2708
sg10
Nsg11
g12
sS'r'
I5
sg13
I00
sg14
Nsg15
I11
sba(iGraph
Node
p2709
(dp2710
g8
(lp2711
sg10
Nsg11
g12
sS'r'
I5
sg13
I00
sg14
Nsg15
I12
sba(iGraph
Node
p2712
(dp2713
g8
(lp2714
sg10
Nsg11
g12
sS'r'
I5
sg13
I00
sg14
Nsg15
I13
sba(iGraph
Node
p2715
(dp2716
g8
(lp2717
sg10
Nsg11
g12
sS'r'
I5
sg13
I00
sg14
Nsg15
I14
sbasg58
I0
sg59
I0
sg60
Nsg61
I0
sg62
I15
sg63
I5
sg64
I0
sg65
(lp2718
sg67
I0
sg68
(lp2719
sba(iGraph
Graph
p2720
(dp2721
g4
(lp2722
(iGraph
Node
p2723
(dp2724
g8
(lp2725
sg10
Nsg11
g12
sS'r'
I5
sg13
I00
sg14
Nsg15
I0
sba(iGraph
Node
p2726
(dp2727
g8
(lp2728
sg10
Nsg11
g12
sS'r'
I5
sg13
I00
sg14
Nsg15
I1
sba(iGraph
Node
p2729
(dp2730
g8
(lp2731
sg10
Nsg11
g12
sS'r'
I5
sg13
I00
sg14
Nsg15
I2
sba(iGraph
Node
p2732
(dp2733
g8
(lp2734
sg10
Nsg11
g12
sS'r'
I5
sg13
I00
sg14
Nsg15
I3
sba(iGraph
Node
p2735
(dp2736
g8
(lp2737
sg10
Nsg11
g12
sS'r'
I5
sg13
I00
sg14
Nsg15
I4
sba(iGraph
Node
p2738
(dp2739
g8
(lp2740
sg10
Nsg11
g12
sS'r'
I5
sg13
I00
sg14
Nsg15
I5
sba(iGraph
Node
p2741
(dp2742
g8
(lp2743
sg10
Nsg11
g12
sS'r'
I5
sg13
I00
sg14
Nsg15
I6
sba(iGraph
Node
p2744
(dp2745
g8
(lp2746
sg10
Nsg11
g12
sS'r'
I5
sg13
I00
sg14
Nsg15
I7
sba(iGraph
Node
p2747
(dp2748
g8
(lp2749
sg10
Nsg11
g12
sS'r'
I5
sg13
I00
sg14
Nsg15
I8
sba(iGraph
Node
p2750
(dp2751
g8
(lp2752
sg10
Nsg11
g12
sS'r'
I5
sg13
I00
sg14
Nsg15
I9
sba(iGraph
Node
p2753
(dp2754
g8
(lp2755
sg10
Nsg11
g12
sS'r'
I5
sg13
I00
sg14
Nsg15
I10
sba(iGraph
Node
p2756
(dp2757
g8
(lp2758
sg10
Nsg11
g12
sS'r'
I5
sg13
I00
sg14
Nsg15
I11
sba(iGraph
Node
p2759
(dp2760
g8
(lp2761
sg10
Nsg11
g12
sS'r'
I5
sg13
I00
sg14
Nsg15
I12
sba(iGraph
Node
p2762
(dp2763
g8
(lp2764
sg10
Nsg11
g12
sS'r'
I5
sg13
I00
sg14
Nsg15
I13
sba(iGraph
Node
p2765
(dp2766
g8
(lp2767
sg10
Nsg11
g12
sS'r'
I5
sg13
I00
sg14
Nsg15
I14
sbasg58
I0
sg59
I0
sg60
Nsg61
I0
sg62
I15
sg63
I5
sg64
I0
sg65
(lp2768
sg67
I0
sg68
(lp2769
sba(iGraph
Graph
p2770
(dp2771
g4
(lp2772
(iGraph
Node
p2773
(dp2774
g8
(lp2775
sg10
Nsg11
g12
sS'r'
I5
sg13
I00
sg14
Nsg15
I0
sba(iGraph
Node
p2776
(dp2777
g8
(lp2778
sg10
Nsg11
g12
sS'r'
I5
sg13
I00
sg14
Nsg15
I1
sba(iGraph
Node
p2779
(dp2780
g8
(lp2781
sg10
Nsg11
g12
sS'r'
I5
sg13
I00
sg14
Nsg15
I2
sba(iGraph
Node
p2782
(dp2783
g8
(lp2784
sg10
Nsg11
g12
sS'r'
I5
sg13
I00
sg14
Nsg15
I3
sba(iGraph
Node
p2785
(dp2786
g8
(lp2787
sg10
Nsg11
g12
sS'r'
I5
sg13
I00
sg14
Nsg15
I4
sba(iGraph
Node
p2788
(dp2789
g8
(lp2790
sg10
Nsg11
g12
sS'r'
I5
sg13
I00
sg14
Nsg15
I5
sba(iGraph
Node
p2791
(dp2792
g8
(lp2793
sg10
Nsg11
g12
sS'r'
I5
sg13
I00
sg14
Nsg15
I6
sba(iGraph
Node
p2794
(dp2795
g8
(lp2796
sg10
Nsg11
g12
sS'r'
I5
sg13
I00
sg14
Nsg15
I7
sba(iGraph
Node
p2797
(dp2798
g8
(lp2799
sg10
Nsg11
g12
sS'r'
I5
sg13
I00
sg14
Nsg15
I8
sba(iGraph
Node
p2800
(dp2801
g8
(lp2802
sg10
Nsg11
g12
sS'r'
I5
sg13
I00
sg14
Nsg15
I9
sba(iGraph
Node
p2803
(dp2804
g8
(lp2805
sg10
Nsg11
g12
sS'r'
I5
sg13
I00
sg14
Nsg15
I10
sba(iGraph
Node
p2806
(dp2807
g8
(lp2808
sg10
Nsg11
g12
sS'r'
I5
sg13
I00
sg14
Nsg15
I11
sba(iGraph
Node
p2809
(dp2810
g8
(lp2811
sg10
Nsg11
g12
sS'r'
I5
sg13
I00
sg14
Nsg15
I12
sba(iGraph
Node
p2812
(dp2813
g8
(lp2814
sg10
Nsg11
g12
sS'r'
I5
sg13
I00
sg14
Nsg15
I13
sba(iGraph
Node
p2815
(dp2816
g8
(lp2817
sg10
Nsg11
g12
sS'r'
I5
sg13
I00
sg14
Nsg15
I14
sbasg58
I0
sg59
I0
sg60
Nsg61
I0
sg62
I15
sg63
I5
sg64
I0
sg65
(lp2818
sg67
I0
sg68
(lp2819
sba(iGraph
Graph
p2820
(dp2821
g4
(lp2822
(iGraph
Node
p2823
(dp2824
g8
(lp2825
sg10
Nsg11
g12
sS'r'
I5
sg13
I00
sg14
Nsg15
I0
sba(iGraph
Node
p2826
(dp2827
g8
(lp2828
sg10
Nsg11
g12
sS'r'
I5
sg13
I00
sg14
Nsg15
I1
sba(iGraph
Node
p2829
(dp2830
g8
(lp2831
sg10
Nsg11
g12
sS'r'
I5
sg13
I00
sg14
Nsg15
I2
sba(iGraph
Node
p2832
(dp2833
g8
(lp2834
sg10
Nsg11
g12
sS'r'
I5
sg13
I00
sg14
Nsg15
I3
sba(iGraph
Node
p2835
(dp2836
g8
(lp2837
sg10
Nsg11
g12
sS'r'
I5
sg13
I00
sg14
Nsg15
I4
sba(iGraph
Node
p2838
(dp2839
g8
(lp2840
sg10
Nsg11
g12
sS'r'
I5
sg13
I00
sg14
Nsg15
I5
sba(iGraph
Node
p2841
(dp2842
g8
(lp2843
sg10
Nsg11
g12
sS'r'
I5
sg13
I00
sg14
Nsg15
I6
sba(iGraph
Node
p2844
(dp2845
g8
(lp2846
sg10
Nsg11
g12
sS'r'
I5
sg13
I00
sg14
Nsg15
I7
sba(iGraph
Node
p2847
(dp2848
g8
(lp2849
sg10
Nsg11
g12
sS'r'
I5
sg13
I00
sg14
Nsg15
I8
sba(iGraph
Node
p2850
(dp2851
g8
(lp2852
sg10
Nsg11
g12
sS'r'
I5
sg13
I00
sg14
Nsg15
I9
sba(iGraph
Node
p2853
(dp2854
g8
(lp2855
sg10
Nsg11
g12
sS'r'
I5
sg13
I00
sg14
Nsg15
I10
sba(iGraph
Node
p2856
(dp2857
g8
(lp2858
sg10
Nsg11
g12
sS'r'
I5
sg13
I00
sg14
Nsg15
I11
sba(iGraph
Node
p2859
(dp2860
g8
(lp2861
sg10
Nsg11
g12
sS'r'
I5
sg13
I00
sg14
Nsg15
I12
sba(iGraph
Node
p2862
(dp2863
g8
(lp2864
sg10
Nsg11
g12
sS'r'
I5
sg13
I00
sg14
Nsg15
I13
sba(iGraph
Node
p2865
(dp2866
g8
(lp2867
sg10
Nsg11
g12
sS'r'
I5
sg13
I00
sg14
Nsg15
I14
sbasg58
I0
sg59
I0
sg60
Nsg61
I0
sg62
I15
sg63
I5
sg64
I0
sg65
(lp2868
sg67
I0
sg68
(lp2869
sba(iGraph
Graph
p2870
(dp2871
g4
(lp2872
(iGraph
Node
p2873
(dp2874
g8
(lp2875
sg10
Nsg11
g12
sS'r'
I5
sg13
I00
sg14
Nsg15
I0
sba(iGraph
Node
p2876
(dp2877
g8
(lp2878
sg10
Nsg11
g12
sS'r'
I5
sg13
I00
sg14
Nsg15
I1
sba(iGraph
Node
p2879
(dp2880
g8
(lp2881
sg10
Nsg11
g12
sS'r'
I5
sg13
I00
sg14
Nsg15
I2
sba(iGraph
Node
p2882
(dp2883
g8
(lp2884
sg10
Nsg11
g12
sS'r'
I5
sg13
I00
sg14
Nsg15
I3
sba(iGraph
Node
p2885
(dp2886
g8
(lp2887
sg10
Nsg11
g12
sS'r'
I5
sg13
I00
sg14
Nsg15
I4
sba(iGraph
Node
p2888
(dp2889
g8
(lp2890
sg10
Nsg11
g12
sS'r'
I5
sg13
I00
sg14
Nsg15
I5
sba(iGraph
Node
p2891
(dp2892
g8
(lp2893
sg10
Nsg11
g12
sS'r'
I5
sg13
I00
sg14
Nsg15
I6
sba(iGraph
Node
p2894
(dp2895
g8
(lp2896
sg10
Nsg11
g12
sS'r'
I5
sg13
I00
sg14
Nsg15
I7
sba(iGraph
Node
p2897
(dp2898
g8
(lp2899
sg10
Nsg11
g12
sS'r'
I5
sg13
I00
sg14
Nsg15
I8
sba(iGraph
Node
p2900
(dp2901
g8
(lp2902
sg10
Nsg11
g12
sS'r'
I5
sg13
I00
sg14
Nsg15
I9
sba(iGraph
Node
p2903
(dp2904
g8
(lp2905
sg10
Nsg11
g12
sS'r'
I5
sg13
I00
sg14
Nsg15
I10
sba(iGraph
Node
p2906
(dp2907
g8
(lp2908
sg10
Nsg11
g12
sS'r'
I5
sg13
I00
sg14
Nsg15
I11
sba(iGraph
Node
p2909
(dp2910
g8
(lp2911
sg10
Nsg11
g12
sS'r'
I5
sg13
I00
sg14
Nsg15
I12
sba(iGraph
Node
p2912
(dp2913
g8
(lp2914
sg10
Nsg11
g12
sS'r'
I5
sg13
I00
sg14
Nsg15
I13
sba(iGraph
Node
p2915
(dp2916
g8
(lp2917
sg10
Nsg11
g12
sS'r'
I5
sg13
I00
sg14
Nsg15
I14
sbasg58
I0
sg59
I0
sg60
Nsg61
I0
sg62
I15
sg63
I5
sg64
I0
sg65
(lp2918
sg67
I0
sg68
(lp2919
sba(iGraph
Graph
p2920
(dp2921
g4
(lp2922
(iGraph
Node
p2923
(dp2924
g8
(lp2925
sg10
Nsg11
g12
sS'r'
I5
sg13
I00
sg14
Nsg15
I0
sba(iGraph
Node
p2926
(dp2927
g8
(lp2928
sg10
Nsg11
g12
sS'r'
I5
sg13
I00
sg14
Nsg15
I1
sba(iGraph
Node
p2929
(dp2930
g8
(lp2931
sg10
Nsg11
g12
sS'r'
I5
sg13
I00
sg14
Nsg15
I2
sba(iGraph
Node
p2932
(dp2933
g8
(lp2934
sg10
Nsg11
g12
sS'r'
I5
sg13
I00
sg14
Nsg15
I3
sba(iGraph
Node
p2935
(dp2936
g8
(lp2937
sg10
Nsg11
g12
sS'r'
I5
sg13
I00
sg14
Nsg15
I4
sba(iGraph
Node
p2938
(dp2939
g8
(lp2940
sg10
Nsg11
g12
sS'r'
I5
sg13
I00
sg14
Nsg15
I5
sba(iGraph
Node
p2941
(dp2942
g8
(lp2943
sg10
Nsg11
g12
sS'r'
I5
sg13
I00
sg14
Nsg15
I6
sba(iGraph
Node
p2944
(dp2945
g8
(lp2946
sg10
Nsg11
g12
sS'r'
I5
sg13
I00
sg14
Nsg15
I7
sba(iGraph
Node
p2947
(dp2948
g8
(lp2949
sg10
Nsg11
g12
sS'r'
I5
sg13
I00
sg14
Nsg15
I8
sba(iGraph
Node
p2950
(dp2951
g8
(lp2952
sg10
Nsg11
g12
sS'r'
I5
sg13
I00
sg14
Nsg15
I9
sba(iGraph
Node
p2953
(dp2954
g8
(lp2955
sg10
Nsg11
g12
sS'r'
I5
sg13
I00
sg14
Nsg15
I10
sba(iGraph
Node
p2956
(dp2957
g8
(lp2958
sg10
Nsg11
g12
sS'r'
I5
sg13
I00
sg14
Nsg15
I11
sba(iGraph
Node
p2959
(dp2960
g8
(lp2961
sg10
Nsg11
g12
sS'r'
I5
sg13
I00
sg14
Nsg15
I12
sba(iGraph
Node
p2962
(dp2963
g8
(lp2964
sg10
Nsg11
g12
sS'r'
I5
sg13
I00
sg14
Nsg15
I13
sba(iGraph
Node
p2965
(dp2966
g8
(lp2967
sg10
Nsg11
g12
sS'r'
I5
sg13
I00
sg14
Nsg15
I14
sbasg58
I0
sg59
I0
sg60
Nsg61
I0
sg62
I15
sg63
I5
sg64
I0
sg65
(lp2968
sg67
I0
sg68
(lp2969
sba(iGraph
Graph
p2970
(dp2971
g4
(lp2972
(iGraph
Node
p2973
(dp2974
g8
(lp2975
sg10
Nsg11
g12
sS'r'
I5
sg13
I00
sg14
Nsg15
I0
sba(iGraph
Node
p2976
(dp2977
g8
(lp2978
sg10
Nsg11
g12
sS'r'
I5
sg13
I00
sg14
Nsg15
I1
sba(iGraph
Node
p2979
(dp2980
g8
(lp2981
sg10
Nsg11
g12
sS'r'
I5
sg13
I00
sg14
Nsg15
I2
sba(iGraph
Node
p2982
(dp2983
g8
(lp2984
sg10
Nsg11
g12
sS'r'
I5
sg13
I00
sg14
Nsg15
I3
sba(iGraph
Node
p2985
(dp2986
g8
(lp2987
sg10
Nsg11
g12
sS'r'
I5
sg13
I00
sg14
Nsg15
I4
sba(iGraph
Node
p2988
(dp2989
g8
(lp2990
sg10
Nsg11
g12
sS'r'
I5
sg13
I00
sg14
Nsg15
I5
sba(iGraph
Node
p2991
(dp2992
g8
(lp2993
sg10
Nsg11
g12
sS'r'
I5
sg13
I00
sg14
Nsg15
I6
sba(iGraph
Node
p2994
(dp2995
g8
(lp2996
sg10
Nsg11
g12
sS'r'
I5
sg13
I00
sg14
Nsg15
I7
sba(iGraph
Node
p2997
(dp2998
g8
(lp2999
sg10
Nsg11
g12
sS'r'
I5
sg13
I00
sg14
Nsg15
I8
sba(iGraph
Node
p3000
(dp3001
g8
(lp3002
sg10
Nsg11
g12
sS'r'
I5
sg13
I00
sg14
Nsg15
I9
sba(iGraph
Node
p3003
(dp3004
g8
(lp3005
sg10
Nsg11
g12
sS'r'
I5
sg13
I00
sg14
Nsg15
I10
sba(iGraph
Node
p3006
(dp3007
g8
(lp3008
sg10
Nsg11
g12
sS'r'
I5
sg13
I00
sg14
Nsg15
I11
sba(iGraph
Node
p3009
(dp3010
g8
(lp3011
sg10
Nsg11
g12
sS'r'
I5
sg13
I00
sg14
Nsg15
I12
sba(iGraph
Node
p3012
(dp3013
g8
(lp3014
sg10
Nsg11
g12
sS'r'
I5
sg13
I00
sg14
Nsg15
I13
sba(iGraph
Node
p3015
(dp3016
g8
(lp3017
sg10
Nsg11
g12
sS'r'
I5
sg13
I00
sg14
Nsg15
I14
sbasg58
I0
sg59
I0
sg60
Nsg61
I0
sg62
I15
sg63
I5
sg64
I0
sg65
(lp3018
sg67
I0
sg68
(lp3019
sba(iGraph
Graph
p3020
(dp3021
g4
(lp3022
(iGraph
Node
p3023
(dp3024
g8
(lp3025
sg10
Nsg11
g12
sS'r'
I5
sg13
I00
sg14
Nsg15
I0
sba(iGraph
Node
p3026
(dp3027
g8
(lp3028
sg10
Nsg11
g12
sS'r'
I5
sg13
I00
sg14
Nsg15
I1
sba(iGraph
Node
p3029
(dp3030
g8
(lp3031
sg10
Nsg11
g12
sS'r'
I5
sg13
I00
sg14
Nsg15
I2
sba(iGraph
Node
p3032
(dp3033
g8
(lp3034
sg10
Nsg11
g12
sS'r'
I5
sg13
I00
sg14
Nsg15
I3
sba(iGraph
Node
p3035
(dp3036
g8
(lp3037
sg10
Nsg11
g12
sS'r'
I5
sg13
I00
sg14
Nsg15
I4
sba(iGraph
Node
p3038
(dp3039
g8
(lp3040
sg10
Nsg11
g12
sS'r'
I5
sg13
I00
sg14
Nsg15
I5
sba(iGraph
Node
p3041
(dp3042
g8
(lp3043
sg10
Nsg11
g12
sS'r'
I5
sg13
I00
sg14
Nsg15
I6
sba(iGraph
Node
p3044
(dp3045
g8
(lp3046
sg10
Nsg11
g12
sS'r'
I5
sg13
I00
sg14
Nsg15
I7
sba(iGraph
Node
p3047
(dp3048
g8
(lp3049
sg10
Nsg11
g12
sS'r'
I5
sg13
I00
sg14
Nsg15
I8
sba(iGraph
Node
p3050
(dp3051
g8
(lp3052
sg10
Nsg11
g12
sS'r'
I5
sg13
I00
sg14
Nsg15
I9
sba(iGraph
Node
p3053
(dp3054
g8
(lp3055
sg10
Nsg11
g12
sS'r'
I5
sg13
I00
sg14
Nsg15
I10
sba(iGraph
Node
p3056
(dp3057
g8
(lp3058
sg10
Nsg11
g12
sS'r'
I5
sg13
I00
sg14
Nsg15
I11
sba(iGraph
Node
p3059
(dp3060
g8
(lp3061
sg10
Nsg11
g12
sS'r'
I5
sg13
I00
sg14
Nsg15
I12
sba(iGraph
Node
p3062
(dp3063
g8
(lp3064
sg10
Nsg11
g12
sS'r'
I5
sg13
I00
sg14
Nsg15
I13
sba(iGraph
Node
p3065
(dp3066
g8
(lp3067
sg10
Nsg11
g12
sS'r'
I5
sg13
I00
sg14
Nsg15
I14
sbasg58
I0
sg59
I0
sg60
Nsg61
I0
sg62
I15
sg63
I5
sg64
I0
sg65
(lp3068
sg67
I0
sg68
(lp3069
sba(iGraph
Graph
p3070
(dp3071
g4
(lp3072
(iGraph
Node
p3073
(dp3074
g8
(lp3075
sg10
Nsg11
g12
sS'r'
I5
sg13
I00
sg14
Nsg15
I0
sba(iGraph
Node
p3076
(dp3077
g8
(lp3078
sg10
Nsg11
g12
sS'r'
I5
sg13
I00
sg14
Nsg15
I1
sba(iGraph
Node
p3079
(dp3080
g8
(lp3081
sg10
Nsg11
g12
sS'r'
I5
sg13
I00
sg14
Nsg15
I2
sba(iGraph
Node
p3082
(dp3083
g8
(lp3084
sg10
Nsg11
g12
sS'r'
I5
sg13
I00
sg14
Nsg15
I3
sba(iGraph
Node
p3085
(dp3086
g8
(lp3087
sg10
Nsg11
g12
sS'r'
I5
sg13
I00
sg14
Nsg15
I4
sba(iGraph
Node
p3088
(dp3089
g8
(lp3090
sg10
Nsg11
g12
sS'r'
I5
sg13
I00
sg14
Nsg15
I5
sba(iGraph
Node
p3091
(dp3092
g8
(lp3093
sg10
Nsg11
g12
sS'r'
I5
sg13
I00
sg14
Nsg15
I6
sba(iGraph
Node
p3094
(dp3095
g8
(lp3096
sg10
Nsg11
g12
sS'r'
I5
sg13
I00
sg14
Nsg15
I7
sba(iGraph
Node
p3097
(dp3098
g8
(lp3099
sg10
Nsg11
g12
sS'r'
I5
sg13
I00
sg14
Nsg15
I8
sba(iGraph
Node
p3100
(dp3101
g8
(lp3102
sg10
Nsg11
g12
sS'r'
I5
sg13
I00
sg14
Nsg15
I9
sba(iGraph
Node
p3103
(dp3104
g8
(lp3105
sg10
Nsg11
g12
sS'r'
I5
sg13
I00
sg14
Nsg15
I10
sba(iGraph
Node
p3106
(dp3107
g8
(lp3108
sg10
Nsg11
g12
sS'r'
I5
sg13
I00
sg14
Nsg15
I11
sba(iGraph
Node
p3109
(dp3110
g8
(lp3111
sg10
Nsg11
g12
sS'r'
I5
sg13
I00
sg14
Nsg15
I12
sba(iGraph
Node
p3112
(dp3113
g8
(lp3114
sg10
Nsg11
g12
sS'r'
I5
sg13
I00
sg14
Nsg15
I13
sba(iGraph
Node
p3115
(dp3116
g8
(lp3117
sg10
Nsg11
g12
sS'r'
I5
sg13
I00
sg14
Nsg15
I14
sbasg58
I0
sg59
I0
sg60
Nsg61
I0
sg62
I15
sg63
I5
sg64
I0
sg65
(lp3118
sg67
I0
sg68
(lp3119
sba(iGraph
Graph
p3120
(dp3121
g4
(lp3122
(iGraph
Node
p3123
(dp3124
g8
(lp3125
sg10
Nsg11
g12
sS'r'
I5
sg13
I00
sg14
Nsg15
I0
sba(iGraph
Node
p3126
(dp3127
g8
(lp3128
sg10
Nsg11
g12
sS'r'
I5
sg13
I00
sg14
Nsg15
I1
sba(iGraph
Node
p3129
(dp3130
g8
(lp3131
sg10
Nsg11
g12
sS'r'
I5
sg13
I00
sg14
Nsg15
I2
sba(iGraph
Node
p3132
(dp3133
g8
(lp3134
sg10
Nsg11
g12
sS'r'
I5
sg13
I00
sg14
Nsg15
I3
sba(iGraph
Node
p3135
(dp3136
g8
(lp3137
sg10
Nsg11
g12
sS'r'
I5
sg13
I00
sg14
Nsg15
I4
sba(iGraph
Node
p3138
(dp3139
g8
(lp3140
sg10
Nsg11
g12
sS'r'
I5
sg13
I00
sg14
Nsg15
I5
sba(iGraph
Node
p3141
(dp3142
g8
(lp3143
sg10
Nsg11
g12
sS'r'
I5
sg13
I00
sg14
Nsg15
I6
sba(iGraph
Node
p3144
(dp3145
g8
(lp3146
sg10
Nsg11
g12
sS'r'
I5
sg13
I00
sg14
Nsg15
I7
sba(iGraph
Node
p3147
(dp3148
g8
(lp3149
sg10
Nsg11
g12
sS'r'
I5
sg13
I00
sg14
Nsg15
I8
sba(iGraph
Node
p3150
(dp3151
g8
(lp3152
sg10
Nsg11
g12
sS'r'
I5
sg13
I00
sg14
Nsg15
I9
sba(iGraph
Node
p3153
(dp3154
g8
(lp3155
sg10
Nsg11
g12
sS'r'
I5
sg13
I00
sg14
Nsg15
I10
sba(iGraph
Node
p3156
(dp3157
g8
(lp3158
sg10
Nsg11
g12
sS'r'
I5
sg13
I00
sg14
Nsg15
I11
sba(iGraph
Node
p3159
(dp3160
g8
(lp3161
sg10
Nsg11
g12
sS'r'
I5
sg13
I00
sg14
Nsg15
I12
sba(iGraph
Node
p3162
(dp3163
g8
(lp3164
sg10
Nsg11
g12
sS'r'
I5
sg13
I00
sg14
Nsg15
I13
sba(iGraph
Node
p3165
(dp3166
g8
(lp3167
sg10
Nsg11
g12
sS'r'
I5
sg13
I00
sg14
Nsg15
I14
sbasg58
I0
sg59
I0
sg60
Nsg61
I0
sg62
I15
sg63
I5
sg64
I0
sg65
(lp3168
sg67
I0
sg68
(lp3169
sba(iGraph
Graph
p3170
(dp3171
g4
(lp3172
(iGraph
Node
p3173
(dp3174
g8
(lp3175
sg10
Nsg11
g12
sS'r'
I5
sg13
I00
sg14
Nsg15
I0
sba(iGraph
Node
p3176
(dp3177
g8
(lp3178
sg10
Nsg11
g12
sS'r'
I5
sg13
I00
sg14
Nsg15
I1
sba(iGraph
Node
p3179
(dp3180
g8
(lp3181
sg10
Nsg11
g12
sS'r'
I5
sg13
I00
sg14
Nsg15
I2
sba(iGraph
Node
p3182
(dp3183
g8
(lp3184
sg10
Nsg11
g12
sS'r'
I5
sg13
I00
sg14
Nsg15
I3
sba(iGraph
Node
p3185
(dp3186
g8
(lp3187
sg10
Nsg11
g12
sS'r'
I5
sg13
I00
sg14
Nsg15
I4
sba(iGraph
Node
p3188
(dp3189
g8
(lp3190
sg10
Nsg11
g12
sS'r'
I5
sg13
I00
sg14
Nsg15
I5
sba(iGraph
Node
p3191
(dp3192
g8
(lp3193
sg10
Nsg11
g12
sS'r'
I5
sg13
I00
sg14
Nsg15
I6
sba(iGraph
Node
p3194
(dp3195
g8
(lp3196
sg10
Nsg11
g12
sS'r'
I5
sg13
I00
sg14
Nsg15
I7
sba(iGraph
Node
p3197
(dp3198
g8
(lp3199
sg10
Nsg11
g12
sS'r'
I5
sg13
I00
sg14
Nsg15
I8
sba(iGraph
Node
p3200
(dp3201
g8
(lp3202
sg10
Nsg11
g12
sS'r'
I5
sg13
I00
sg14
Nsg15
I9
sba(iGraph
Node
p3203
(dp3204
g8
(lp3205
sg10
Nsg11
g12
sS'r'
I5
sg13
I00
sg14
Nsg15
I10
sba(iGraph
Node
p3206
(dp3207
g8
(lp3208
sg10
Nsg11
g12
sS'r'
I5
sg13
I00
sg14
Nsg15
I11
sba(iGraph
Node
p3209
(dp3210
g8
(lp3211
sg10
Nsg11
g12
sS'r'
I5
sg13
I00
sg14
Nsg15
I12
sba(iGraph
Node
p3212
(dp3213
g8
(lp3214
sg10
Nsg11
g12
sS'r'
I5
sg13
I00
sg14
Nsg15
I13
sba(iGraph
Node
p3215
(dp3216
g8
(lp3217
sg10
Nsg11
g12
sS'r'
I5
sg13
I00
sg14
Nsg15
I14
sbasg58
I0
sg59
I0
sg60
Nsg61
I0
sg62
I15
sg63
I5
sg64
I0
sg65
(lp3218
sg67
I0
sg68
(lp3219
sba(iGraph
Graph
p3220
(dp3221
g4
(lp3222
(iGraph
Node
p3223
(dp3224
g8
(lp3225
sg10
Nsg11
g12
sS'r'
I5
sg13
I00
sg14
Nsg15
I0
sba(iGraph
Node
p3226
(dp3227
g8
(lp3228
sg10
Nsg11
g12
sS'r'
I5
sg13
I00
sg14
Nsg15
I1
sba(iGraph
Node
p3229
(dp3230
g8
(lp3231
sg10
Nsg11
g12
sS'r'
I5
sg13
I00
sg14
Nsg15
I2
sba(iGraph
Node
p3232
(dp3233
g8
(lp3234
sg10
Nsg11
g12
sS'r'
I5
sg13
I00
sg14
Nsg15
I3
sba(iGraph
Node
p3235
(dp3236
g8
(lp3237
sg10
Nsg11
g12
sS'r'
I5
sg13
I00
sg14
Nsg15
I4
sba(iGraph
Node
p3238
(dp3239
g8
(lp3240
sg10
Nsg11
g12
sS'r'
I5
sg13
I00
sg14
Nsg15
I5
sba(iGraph
Node
p3241
(dp3242
g8
(lp3243
sg10
Nsg11
g12
sS'r'
I5
sg13
I00
sg14
Nsg15
I6
sba(iGraph
Node
p3244
(dp3245
g8
(lp3246
sg10
Nsg11
g12
sS'r'
I5
sg13
I00
sg14
Nsg15
I7
sba(iGraph
Node
p3247
(dp3248
g8
(lp3249
sg10
Nsg11
g12
sS'r'
I5
sg13
I00
sg14
Nsg15
I8
sba(iGraph
Node
p3250
(dp3251
g8
(lp3252
sg10
Nsg11
g12
sS'r'
I5
sg13
I00
sg14
Nsg15
I9
sba(iGraph
Node
p3253
(dp3254
g8
(lp3255
sg10
Nsg11
g12
sS'r'
I5
sg13
I00
sg14
Nsg15
I10
sba(iGraph
Node
p3256
(dp3257
g8
(lp3258
sg10
Nsg11
g12
sS'r'
I5
sg13
I00
sg14
Nsg15
I11
sba(iGraph
Node
p3259
(dp3260
g8
(lp3261
sg10
Nsg11
g12
sS'r'
I5
sg13
I00
sg14
Nsg15
I12
sba(iGraph
Node
p3262
(dp3263
g8
(lp3264
sg10
Nsg11
g12
sS'r'
I5
sg13
I00
sg14
Nsg15
I13
sba(iGraph
Node
p3265
(dp3266
g8
(lp3267
sg10
Nsg11
g12
sS'r'
I5
sg13
I00
sg14
Nsg15
I14
sbasg58
I0
sg59
I0
sg60
Nsg61
I0
sg62
I15
sg63
I5
sg64
I0
sg65
(lp3268
sg67
I0
sg68
(lp3269
sba(iGraph
Graph
p3270
(dp3271
g4
(lp3272
(iGraph
Node
p3273
(dp3274
g8
(lp3275
sg10
Nsg11
g12
sS'r'
I5
sg13
I00
sg14
Nsg15
I0
sba(iGraph
Node
p3276
(dp3277
g8
(lp3278
sg10
Nsg11
g12
sS'r'
I5
sg13
I00
sg14
Nsg15
I1
sba(iGraph
Node
p3279
(dp3280
g8
(lp3281
sg10
Nsg11
g12
sS'r'
I5
sg13
I00
sg14
Nsg15
I2
sba(iGraph
Node
p3282
(dp3283
g8
(lp3284
sg10
Nsg11
g12
sS'r'
I5
sg13
I00
sg14
Nsg15
I3
sba(iGraph
Node
p3285
(dp3286
g8
(lp3287
sg10
Nsg11
g12
sS'r'
I5
sg13
I00
sg14
Nsg15
I4
sba(iGraph
Node
p3288
(dp3289
g8
(lp3290
sg10
Nsg11
g12
sS'r'
I5
sg13
I00
sg14
Nsg15
I5
sba(iGraph
Node
p3291
(dp3292
g8
(lp3293
sg10
Nsg11
g12
sS'r'
I5
sg13
I00
sg14
Nsg15
I6
sba(iGraph
Node
p3294
(dp3295
g8
(lp3296
sg10
Nsg11
g12
sS'r'
I5
sg13
I00
sg14
Nsg15
I7
sba(iGraph
Node
p3297
(dp3298
g8
(lp3299
sg10
Nsg11
g12
sS'r'
I5
sg13
I00
sg14
Nsg15
I8
sba(iGraph
Node
p3300
(dp3301
g8
(lp3302
sg10
Nsg11
g12
sS'r'
I5
sg13
I00
sg14
Nsg15
I9
sba(iGraph
Node
p3303
(dp3304
g8
(lp3305
sg10
Nsg11
g12
sS'r'
I5
sg13
I00
sg14
Nsg15
I10
sba(iGraph
Node
p3306
(dp3307
g8
(lp3308
sg10
Nsg11
g12
sS'r'
I5
sg13
I00
sg14
Nsg15
I11
sba(iGraph
Node
p3309
(dp3310
g8
(lp3311
sg10
Nsg11
g12
sS'r'
I5
sg13
I00
sg14
Nsg15
I12
sba(iGraph
Node
p3312
(dp3313
g8
(lp3314
sg10
Nsg11
g12
sS'r'
I5
sg13
I00
sg14
Nsg15
I13
sba(iGraph
Node
p3315
(dp3316
g8
(lp3317
sg10
Nsg11
g12
sS'r'
I5
sg13
I00
sg14
Nsg15
I14
sbasg58
I0
sg59
I0
sg60
Nsg61
I0
sg62
I15
sg63
I5
sg64
I0
sg65
(lp3318
sg67
I0
sg68
(lp3319
sba(iGraph
Graph
p3320
(dp3321
g4
(lp3322
(iGraph
Node
p3323
(dp3324
g8
(lp3325
sg10
Nsg11
g12
sS'r'
I5
sg13
I00
sg14
Nsg15
I0
sba(iGraph
Node
p3326
(dp3327
g8
(lp3328
sg10
Nsg11
g12
sS'r'
I5
sg13
I00
sg14
Nsg15
I1
sba(iGraph
Node
p3329
(dp3330
g8
(lp3331
sg10
Nsg11
g12
sS'r'
I5
sg13
I00
sg14
Nsg15
I2
sba(iGraph
Node
p3332
(dp3333
g8
(lp3334
sg10
Nsg11
g12
sS'r'
I5
sg13
I00
sg14
Nsg15
I3
sba(iGraph
Node
p3335
(dp3336
g8
(lp3337
sg10
Nsg11
g12
sS'r'
I5
sg13
I00
sg14
Nsg15
I4
sba(iGraph
Node
p3338
(dp3339
g8
(lp3340
sg10
Nsg11
g12
sS'r'
I5
sg13
I00
sg14
Nsg15
I5
sba(iGraph
Node
p3341
(dp3342
g8
(lp3343
sg10
Nsg11
g12
sS'r'
I5
sg13
I00
sg14
Nsg15
I6
sba(iGraph
Node
p3344
(dp3345
g8
(lp3346
sg10
Nsg11
g12
sS'r'
I5
sg13
I00
sg14
Nsg15
I7
sba(iGraph
Node
p3347
(dp3348
g8
(lp3349
sg10
Nsg11
g12
sS'r'
I5
sg13
I00
sg14
Nsg15
I8
sba(iGraph
Node
p3350
(dp3351
g8
(lp3352
sg10
Nsg11
g12
sS'r'
I5
sg13
I00
sg14
Nsg15
I9
sba(iGraph
Node
p3353
(dp3354
g8
(lp3355
sg10
Nsg11
g12
sS'r'
I5
sg13
I00
sg14
Nsg15
I10
sba(iGraph
Node
p3356
(dp3357
g8
(lp3358
sg10
Nsg11
g12
sS'r'
I5
sg13
I00
sg14
Nsg15
I11
sba(iGraph
Node
p3359
(dp3360
g8
(lp3361
sg10
Nsg11
g12
sS'r'
I5
sg13
I00
sg14
Nsg15
I12
sba(iGraph
Node
p3362
(dp3363
g8
(lp3364
sg10
Nsg11
g12
sS'r'
I5
sg13
I00
sg14
Nsg15
I13
sba(iGraph
Node
p3365
(dp3366
g8
(lp3367
sg10
Nsg11
g12
sS'r'
I5
sg13
I00
sg14
Nsg15
I14
sbasg58
I0
sg59
I0
sg60
Nsg61
I0
sg62
I15
sg63
I5
sg64
I0
sg65
(lp3368
sg67
I0
sg68
(lp3369
sba(iGraph
Graph
p3370
(dp3371
g4
(lp3372
(iGraph
Node
p3373
(dp3374
g8
(lp3375
sg10
Nsg11
g12
sS'r'
I5
sg13
I00
sg14
Nsg15
I0
sba(iGraph
Node
p3376
(dp3377
g8
(lp3378
sg10
Nsg11
g12
sS'r'
I5
sg13
I00
sg14
Nsg15
I1
sba(iGraph
Node
p3379
(dp3380
g8
(lp3381
sg10
Nsg11
g12
sS'r'
I5
sg13
I00
sg14
Nsg15
I2
sba(iGraph
Node
p3382
(dp3383
g8
(lp3384
sg10
Nsg11
g12
sS'r'
I5
sg13
I00
sg14
Nsg15
I3
sba(iGraph
Node
p3385
(dp3386
g8
(lp3387
sg10
Nsg11
g12
sS'r'
I5
sg13
I00
sg14
Nsg15
I4
sba(iGraph
Node
p3388
(dp3389
g8
(lp3390
sg10
Nsg11
g12
sS'r'
I5
sg13
I00
sg14
Nsg15
I5
sba(iGraph
Node
p3391
(dp3392
g8
(lp3393
sg10
Nsg11
g12
sS'r'
I5
sg13
I00
sg14
Nsg15
I6
sba(iGraph
Node
p3394
(dp3395
g8
(lp3396
sg10
Nsg11
g12
sS'r'
I5
sg13
I00
sg14
Nsg15
I7
sba(iGraph
Node
p3397
(dp3398
g8
(lp3399
sg10
Nsg11
g12
sS'r'
I5
sg13
I00
sg14
Nsg15
I8
sba(iGraph
Node
p3400
(dp3401
g8
(lp3402
sg10
Nsg11
g12
sS'r'
I5
sg13
I00
sg14
Nsg15
I9
sba(iGraph
Node
p3403
(dp3404
g8
(lp3405
sg10
Nsg11
g12
sS'r'
I5
sg13
I00
sg14
Nsg15
I10
sba(iGraph
Node
p3406
(dp3407
g8
(lp3408
sg10
Nsg11
g12
sS'r'
I5
sg13
I00
sg14
Nsg15
I11
sba(iGraph
Node
p3409
(dp3410
g8
(lp3411
sg10
Nsg11
g12
sS'r'
I5
sg13
I00
sg14
Nsg15
I12
sba(iGraph
Node
p3412
(dp3413
g8
(lp3414
sg10
Nsg11
g12
sS'r'
I5
sg13
I00
sg14
Nsg15
I13
sba(iGraph
Node
p3415
(dp3416
g8
(lp3417
sg10
Nsg11
g12
sS'r'
I5
sg13
I00
sg14
Nsg15
I14
sbasg58
I0
sg59
I0
sg60
Nsg61
I0
sg62
I15
sg63
I5
sg64
I0
sg65
(lp3418
sg67
I0
sg68
(lp3419
sba(iGraph
Graph
p3420
(dp3421
g4
(lp3422
(iGraph
Node
p3423
(dp3424
g8
(lp3425
sg10
Nsg11
g12
sS'r'
I5
sg13
I00
sg14
Nsg15
I0
sba(iGraph
Node
p3426
(dp3427
g8
(lp3428
sg10
Nsg11
g12
sS'r'
I5
sg13
I00
sg14
Nsg15
I1
sba(iGraph
Node
p3429
(dp3430
g8
(lp3431
sg10
Nsg11
g12
sS'r'
I5
sg13
I00
sg14
Nsg15
I2
sba(iGraph
Node
p3432
(dp3433
g8
(lp3434
sg10
Nsg11
g12
sS'r'
I5
sg13
I00
sg14
Nsg15
I3
sba(iGraph
Node
p3435
(dp3436
g8
(lp3437
sg10
Nsg11
g12
sS'r'
I5
sg13
I00
sg14
Nsg15
I4
sba(iGraph
Node
p3438
(dp3439
g8
(lp3440
sg10
Nsg11
g12
sS'r'
I5
sg13
I00
sg14
Nsg15
I5
sba(iGraph
Node
p3441
(dp3442
g8
(lp3443
sg10
Nsg11
g12
sS'r'
I5
sg13
I00
sg14
Nsg15
I6
sba(iGraph
Node
p3444
(dp3445
g8
(lp3446
sg10
Nsg11
g12
sS'r'
I5
sg13
I00
sg14
Nsg15
I7
sba(iGraph
Node
p3447
(dp3448
g8
(lp3449
sg10
Nsg11
g12
sS'r'
I5
sg13
I00
sg14
Nsg15
I8
sba(iGraph
Node
p3450
(dp3451
g8
(lp3452
sg10
Nsg11
g12
sS'r'
I5
sg13
I00
sg14
Nsg15
I9
sba(iGraph
Node
p3453
(dp3454
g8
(lp3455
sg10
Nsg11
g12
sS'r'
I5
sg13
I00
sg14
Nsg15
I10
sba(iGraph
Node
p3456
(dp3457
g8
(lp3458
sg10
Nsg11
g12
sS'r'
I5
sg13
I00
sg14
Nsg15
I11
sba(iGraph
Node
p3459
(dp3460
g8
(lp3461
sg10
Nsg11
g12
sS'r'
I5
sg13
I00
sg14
Nsg15
I12
sba(iGraph
Node
p3462
(dp3463
g8
(lp3464
sg10
Nsg11
g12
sS'r'
I5
sg13
I00
sg14
Nsg15
I13
sba(iGraph
Node
p3465
(dp3466
g8
(lp3467
sg10
Nsg11
g12
sS'r'
I5
sg13
I00
sg14
Nsg15
I14
sbasg58
I0
sg59
I0
sg60
Nsg61
I0
sg62
I15
sg63
I5
sg64
I0
sg65
(lp3468
sg67
I0
sg68
(lp3469
sba(iGraph
Graph
p3470
(dp3471
g4
(lp3472
(iGraph
Node
p3473
(dp3474
g8
(lp3475
sg10
Nsg11
g12
sS'r'
I5
sg13
I00
sg14
Nsg15
I0
sba(iGraph
Node
p3476
(dp3477
g8
(lp3478
sg10
Nsg11
g12
sS'r'
I5
sg13
I00
sg14
Nsg15
I1
sba(iGraph
Node
p3479
(dp3480
g8
(lp3481
sg10
Nsg11
g12
sS'r'
I5
sg13
I00
sg14
Nsg15
I2
sba(iGraph
Node
p3482
(dp3483
g8
(lp3484
sg10
Nsg11
g12
sS'r'
I5
sg13
I00
sg14
Nsg15
I3
sba(iGraph
Node
p3485
(dp3486
g8
(lp3487
sg10
Nsg11
g12
sS'r'
I5
sg13
I00
sg14
Nsg15
I4
sba(iGraph
Node
p3488
(dp3489
g8
(lp3490
sg10
Nsg11
g12
sS'r'
I5
sg13
I00
sg14
Nsg15
I5
sba(iGraph
Node
p3491
(dp3492
g8
(lp3493
sg10
Nsg11
g12
sS'r'
I5
sg13
I00
sg14
Nsg15
I6
sba(iGraph
Node
p3494
(dp3495
g8
(lp3496
sg10
Nsg11
g12
sS'r'
I5
sg13
I00
sg14
Nsg15
I7
sba(iGraph
Node
p3497
(dp3498
g8
(lp3499
sg10
Nsg11
g12
sS'r'
I5
sg13
I00
sg14
Nsg15
I8
sba(iGraph
Node
p3500
(dp3501
g8
(lp3502
sg10
Nsg11
g12
sS'r'
I5
sg13
I00
sg14
Nsg15
I9
sba(iGraph
Node
p3503
(dp3504
g8
(lp3505
sg10
Nsg11
g12
sS'r'
I5
sg13
I00
sg14
Nsg15
I10
sba(iGraph
Node
p3506
(dp3507
g8
(lp3508
sg10
Nsg11
g12
sS'r'
I5
sg13
I00
sg14
Nsg15
I11
sba(iGraph
Node
p3509
(dp3510
g8
(lp3511
sg10
Nsg11
g12
sS'r'
I5
sg13
I00
sg14
Nsg15
I12
sba(iGraph
Node
p3512
(dp3513
g8
(lp3514
sg10
Nsg11
g12
sS'r'
I5
sg13
I00
sg14
Nsg15
I13
sba(iGraph
Node
p3515
(dp3516
g8
(lp3517
sg10
Nsg11
g12
sS'r'
I5
sg13
I00
sg14
Nsg15
I14
sbasg58
I0
sg59
I0
sg60
Nsg61
I0
sg62
I15
sg63
I5
sg64
I0
sg65
(lp3518
sg67
I0
sg68
(lp3519
sba(iGraph
Graph
p3520
(dp3521
g4
(lp3522
(iGraph
Node
p3523
(dp3524
g8
(lp3525
sg10
Nsg11
g12
sS'r'
I5
sg13
I00
sg14
Nsg15
I0
sba(iGraph
Node
p3526
(dp3527
g8
(lp3528
sg10
Nsg11
g12
sS'r'
I5
sg13
I00
sg14
Nsg15
I1
sba(iGraph
Node
p3529
(dp3530
g8
(lp3531
sg10
Nsg11
g12
sS'r'
I5
sg13
I00
sg14
Nsg15
I2
sba(iGraph
Node
p3532
(dp3533
g8
(lp3534
sg10
Nsg11
g12
sS'r'
I5
sg13
I00
sg14
Nsg15
I3
sba(iGraph
Node
p3535
(dp3536
g8
(lp3537
sg10
Nsg11
g12
sS'r'
I5
sg13
I00
sg14
Nsg15
I4
sba(iGraph
Node
p3538
(dp3539
g8
(lp3540
sg10
Nsg11
g12
sS'r'
I5
sg13
I00
sg14
Nsg15
I5
sba(iGraph
Node
p3541
(dp3542
g8
(lp3543
sg10
Nsg11
g12
sS'r'
I5
sg13
I00
sg14
Nsg15
I6
sba(iGraph
Node
p3544
(dp3545
g8
(lp3546
sg10
Nsg11
g12
sS'r'
I5
sg13
I00
sg14
Nsg15
I7
sba(iGraph
Node
p3547
(dp3548
g8
(lp3549
sg10
Nsg11
g12
sS'r'
I5
sg13
I00
sg14
Nsg15
I8
sba(iGraph
Node
p3550
(dp3551
g8
(lp3552
sg10
Nsg11
g12
sS'r'
I5
sg13
I00
sg14
Nsg15
I9
sba(iGraph
Node
p3553
(dp3554
g8
(lp3555
sg10
Nsg11
g12
sS'r'
I5
sg13
I00
sg14
Nsg15
I10
sba(iGraph
Node
p3556
(dp3557
g8
(lp3558
sg10
Nsg11
g12
sS'r'
I5
sg13
I00
sg14
Nsg15
I11
sba(iGraph
Node
p3559
(dp3560
g8
(lp3561
sg10
Nsg11
g12
sS'r'
I5
sg13
I00
sg14
Nsg15
I12
sba(iGraph
Node
p3562
(dp3563
g8
(lp3564
sg10
Nsg11
g12
sS'r'
I5
sg13
I00
sg14
Nsg15
I13
sba(iGraph
Node
p3565
(dp3566
g8
(lp3567
sg10
Nsg11
g12
sS'r'
I5
sg13
I00
sg14
Nsg15
I14
sbasg58
I0
sg59
I0
sg60
Nsg61
I0
sg62
I15
sg63
I5
sg64
I0
sg65
(lp3568
sg67
I0
sg68
(lp3569
sba(iGraph
Graph
p3570
(dp3571
g4
(lp3572
(iGraph
Node
p3573
(dp3574
g8
(lp3575
sg10
Nsg11
g12
sS'r'
I5
sg13
I00
sg14
Nsg15
I0
sba(iGraph
Node
p3576
(dp3577
g8
(lp3578
sg10
Nsg11
g12
sS'r'
I5
sg13
I00
sg14
Nsg15
I1
sba(iGraph
Node
p3579
(dp3580
g8
(lp3581
sg10
Nsg11
g12
sS'r'
I5
sg13
I00
sg14
Nsg15
I2
sba(iGraph
Node
p3582
(dp3583
g8
(lp3584
sg10
Nsg11
g12
sS'r'
I5
sg13
I00
sg14
Nsg15
I3
sba(iGraph
Node
p3585
(dp3586
g8
(lp3587
sg10
Nsg11
g12
sS'r'
I5
sg13
I00
sg14
Nsg15
I4
sba(iGraph
Node
p3588
(dp3589
g8
(lp3590
sg10
Nsg11
g12
sS'r'
I5
sg13
I00
sg14
Nsg15
I5
sba(iGraph
Node
p3591
(dp3592
g8
(lp3593
sg10
Nsg11
g12
sS'r'
I5
sg13
I00
sg14
Nsg15
I6
sba(iGraph
Node
p3594
(dp3595
g8
(lp3596
sg10
Nsg11
g12
sS'r'
I5
sg13
I00
sg14
Nsg15
I7
sba(iGraph
Node
p3597
(dp3598
g8
(lp3599
sg10
Nsg11
g12
sS'r'
I5
sg13
I00
sg14
Nsg15
I8
sba(iGraph
Node
p3600
(dp3601
g8
(lp3602
sg10
Nsg11
g12
sS'r'
I5
sg13
I00
sg14
Nsg15
I9
sba(iGraph
Node
p3603
(dp3604
g8
(lp3605
sg10
Nsg11
g12
sS'r'
I5
sg13
I00
sg14
Nsg15
I10
sba(iGraph
Node
p3606
(dp3607
g8
(lp3608
sg10
Nsg11
g12
sS'r'
I5
sg13
I00
sg14
Nsg15
I11
sba(iGraph
Node
p3609
(dp3610
g8
(lp3611
sg10
Nsg11
g12
sS'r'
I5
sg13
I00
sg14
Nsg15
I12
sba(iGraph
Node
p3612
(dp3613
g8
(lp3614
sg10
Nsg11
g12
sS'r'
I5
sg13
I00
sg14
Nsg15
I13
sba(iGraph
Node
p3615
(dp3616
g8
(lp3617
sg10
Nsg11
g12
sS'r'
I5
sg13
I00
sg14
Nsg15
I14
sbasg58
I0
sg59
I0
sg60
Nsg61
I0
sg62
I15
sg63
I5
sg64
I0
sg65
(lp3618
sg67
I0
sg68
(lp3619
sba(iGraph
Graph
p3620
(dp3621
g4
(lp3622
(iGraph
Node
p3623
(dp3624
g8
(lp3625
sg10
Nsg11
g12
sS'r'
I5
sg13
I00
sg14
Nsg15
I0
sba(iGraph
Node
p3626
(dp3627
g8
(lp3628
sg10
Nsg11
g12
sS'r'
I5
sg13
I00
sg14
Nsg15
I1
sba(iGraph
Node
p3629
(dp3630
g8
(lp3631
sg10
Nsg11
g12
sS'r'
I5
sg13
I00
sg14
Nsg15
I2
sba(iGraph
Node
p3632
(dp3633
g8
(lp3634
sg10
Nsg11
g12
sS'r'
I5
sg13
I00
sg14
Nsg15
I3
sba(iGraph
Node
p3635
(dp3636
g8
(lp3637
sg10
Nsg11
g12
sS'r'
I5
sg13
I00
sg14
Nsg15
I4
sba(iGraph
Node
p3638
(dp3639
g8
(lp3640
sg10
Nsg11
g12
sS'r'
I5
sg13
I00
sg14
Nsg15
I5
sba(iGraph
Node
p3641
(dp3642
g8
(lp3643
sg10
Nsg11
g12
sS'r'
I5
sg13
I00
sg14
Nsg15
I6
sba(iGraph
Node
p3644
(dp3645
g8
(lp3646
sg10
Nsg11
g12
sS'r'
I5
sg13
I00
sg14
Nsg15
I7
sba(iGraph
Node
p3647
(dp3648
g8
(lp3649
sg10
Nsg11
g12
sS'r'
I5
sg13
I00
sg14
Nsg15
I8
sba(iGraph
Node
p3650
(dp3651
g8
(lp3652
sg10
Nsg11
g12
sS'r'
I5
sg13
I00
sg14
Nsg15
I9
sba(iGraph
Node
p3653
(dp3654
g8
(lp3655
sg10
Nsg11
g12
sS'r'
I5
sg13
I00
sg14
Nsg15
I10
sba(iGraph
Node
p3656
(dp3657
g8
(lp3658
sg10
Nsg11
g12
sS'r'
I5
sg13
I00
sg14
Nsg15
I11
sba(iGraph
Node
p3659
(dp3660
g8
(lp3661
sg10
Nsg11
g12
sS'r'
I5
sg13
I00
sg14
Nsg15
I12
sba(iGraph
Node
p3662
(dp3663
g8
(lp3664
sg10
Nsg11
g12
sS'r'
I5
sg13
I00
sg14
Nsg15
I13
sba(iGraph
Node
p3665
(dp3666
g8
(lp3667
sg10
Nsg11
g12
sS'r'
I5
sg13
I00
sg14
Nsg15
I14
sbasg58
I0
sg59
I0
sg60
Nsg61
I0
sg62
I15
sg63
I5
sg64
I0
sg65
(lp3668
sg67
I0
sg68
(lp3669
sba(iGraph
Graph
p3670
(dp3671
g4
(lp3672
(iGraph
Node
p3673
(dp3674
g8
(lp3675
sg10
Nsg11
g12
sS'r'
I5
sg13
I00
sg14
Nsg15
I0
sba(iGraph
Node
p3676
(dp3677
g8
(lp3678
sg10
Nsg11
g12
sS'r'
I5
sg13
I00
sg14
Nsg15
I1
sba(iGraph
Node
p3679
(dp3680
g8
(lp3681
sg10
Nsg11
g12
sS'r'
I5
sg13
I00
sg14
Nsg15
I2
sba(iGraph
Node
p3682
(dp3683
g8
(lp3684
sg10
Nsg11
g12
sS'r'
I5
sg13
I00
sg14
Nsg15
I3
sba(iGraph
Node
p3685
(dp3686
g8
(lp3687
sg10
Nsg11
g12
sS'r'
I5
sg13
I00
sg14
Nsg15
I4
sba(iGraph
Node
p3688
(dp3689
g8
(lp3690
sg10
Nsg11
g12
sS'r'
I5
sg13
I00
sg14
Nsg15
I5
sba(iGraph
Node
p3691
(dp3692
g8
(lp3693
sg10
Nsg11
g12
sS'r'
I5
sg13
I00
sg14
Nsg15
I6
sba(iGraph
Node
p3694
(dp3695
g8
(lp3696
sg10
Nsg11
g12
sS'r'
I5
sg13
I00
sg14
Nsg15
I7
sba(iGraph
Node
p3697
(dp3698
g8
(lp3699
sg10
Nsg11
g12
sS'r'
I5
sg13
I00
sg14
Nsg15
I8
sba(iGraph
Node
p3700
(dp3701
g8
(lp3702
sg10
Nsg11
g12
sS'r'
I5
sg13
I00
sg14
Nsg15
I9
sba(iGraph
Node
p3703
(dp3704
g8
(lp3705
sg10
Nsg11
g12
sS'r'
I5
sg13
I00
sg14
Nsg15
I10
sba(iGraph
Node
p3706
(dp3707
g8
(lp3708
sg10
Nsg11
g12
sS'r'
I5
sg13
I00
sg14
Nsg15
I11
sba(iGraph
Node
p3709
(dp3710
g8
(lp3711
sg10
Nsg11
g12
sS'r'
I5
sg13
I00
sg14
Nsg15
I12
sba(iGraph
Node
p3712
(dp3713
g8
(lp3714
sg10
Nsg11
g12
sS'r'
I5
sg13
I00
sg14
Nsg15
I13
sba(iGraph
Node
p3715
(dp3716
g8
(lp3717
sg10
Nsg11
g12
sS'r'
I5
sg13
I00
sg14
Nsg15
I14
sbasg58
I0
sg59
I0
sg60
Nsg61
I0
sg62
I15
sg63
I5
sg64
I0
sg65
(lp3718
sg67
I0
sg68
(lp3719
sba(iGraph
Graph
p3720
(dp3721
g4
(lp3722
(iGraph
Node
p3723
(dp3724
g8
(lp3725
sg10
Nsg11
g12
sS'r'
I5
sg13
I00
sg14
Nsg15
I0
sba(iGraph
Node
p3726
(dp3727
g8
(lp3728
sg10
Nsg11
g12
sS'r'
I5
sg13
I00
sg14
Nsg15
I1
sba(iGraph
Node
p3729
(dp3730
g8
(lp3731
sg10
Nsg11
g12
sS'r'
I5
sg13
I00
sg14
Nsg15
I2
sba(iGraph
Node
p3732
(dp3733
g8
(lp3734
sg10
Nsg11
g12
sS'r'
I5
sg13
I00
sg14
Nsg15
I3
sba(iGraph
Node
p3735
(dp3736
g8
(lp3737
sg10
Nsg11
g12
sS'r'
I5
sg13
I00
sg14
Nsg15
I4
sba(iGraph
Node
p3738
(dp3739
g8
(lp3740
sg10
Nsg11
g12
sS'r'
I5
sg13
I00
sg14
Nsg15
I5
sba(iGraph
Node
p3741
(dp3742
g8
(lp3743
sg10
Nsg11
g12
sS'r'
I5
sg13
I00
sg14
Nsg15
I6
sba(iGraph
Node
p3744
(dp3745
g8
(lp3746
sg10
Nsg11
g12
sS'r'
I5
sg13
I00
sg14
Nsg15
I7
sba(iGraph
Node
p3747
(dp3748
g8
(lp3749
sg10
Nsg11
g12
sS'r'
I5
sg13
I00
sg14
Nsg15
I8
sba(iGraph
Node
p3750
(dp3751
g8
(lp3752
sg10
Nsg11
g12
sS'r'
I5
sg13
I00
sg14
Nsg15
I9
sba(iGraph
Node
p3753
(dp3754
g8
(lp3755
sg10
Nsg11
g12
sS'r'
I5
sg13
I00
sg14
Nsg15
I10
sba(iGraph
Node
p3756
(dp3757
g8
(lp3758
sg10
Nsg11
g12
sS'r'
I5
sg13
I00
sg14
Nsg15
I11
sba(iGraph
Node
p3759
(dp3760
g8
(lp3761
sg10
Nsg11
g12
sS'r'
I5
sg13
I00
sg14
Nsg15
I12
sba(iGraph
Node
p3762
(dp3763
g8
(lp3764
sg10
Nsg11
g12
sS'r'
I5
sg13
I00
sg14
Nsg15
I13
sba(iGraph
Node
p3765
(dp3766
g8
(lp3767
sg10
Nsg11
g12
sS'r'
I5
sg13
I00
sg14
Nsg15
I14
sbasg58
I0
sg59
I0
sg60
Nsg61
I0
sg62
I15
sg63
I5
sg64
I0
sg65
(lp3768
sg67
I0
sg68
(lp3769
sba(iGraph
Graph
p3770
(dp3771
g4
(lp3772
(iGraph
Node
p3773
(dp3774
g8
(lp3775
sg10
Nsg11
g12
sS'r'
I5
sg13
I00
sg14
Nsg15
I0
sba(iGraph
Node
p3776
(dp3777
g8
(lp3778
sg10
Nsg11
g12
sS'r'
I5
sg13
I00
sg14
Nsg15
I1
sba(iGraph
Node
p3779
(dp3780
g8
(lp3781
sg10
Nsg11
g12
sS'r'
I5
sg13
I00
sg14
Nsg15
I2
sba(iGraph
Node
p3782
(dp3783
g8
(lp3784
sg10
Nsg11
g12
sS'r'
I5
sg13
I00
sg14
Nsg15
I3
sba(iGraph
Node
p3785
(dp3786
g8
(lp3787
sg10
Nsg11
g12
sS'r'
I5
sg13
I00
sg14
Nsg15
I4
sba(iGraph
Node
p3788
(dp3789
g8
(lp3790
sg10
Nsg11
g12
sS'r'
I5
sg13
I00
sg14
Nsg15
I5
sba(iGraph
Node
p3791
(dp3792
g8
(lp3793
sg10
Nsg11
g12
sS'r'
I5
sg13
I00
sg14
Nsg15
I6
sba(iGraph
Node
p3794
(dp3795
g8
(lp3796
sg10
Nsg11
g12
sS'r'
I5
sg13
I00
sg14
Nsg15
I7
sba(iGraph
Node
p3797
(dp3798
g8
(lp3799
sg10
Nsg11
g12
sS'r'
I5
sg13
I00
sg14
Nsg15
I8
sba(iGraph
Node
p3800
(dp3801
g8
(lp3802
sg10
Nsg11
g12
sS'r'
I5
sg13
I00
sg14
Nsg15
I9
sba(iGraph
Node
p3803
(dp3804
g8
(lp3805
sg10
Nsg11
g12
sS'r'
I5
sg13
I00
sg14
Nsg15
I10
sba(iGraph
Node
p3806
(dp3807
g8
(lp3808
sg10
Nsg11
g12
sS'r'
I5
sg13
I00
sg14
Nsg15
I11
sba(iGraph
Node
p3809
(dp3810
g8
(lp3811
sg10
Nsg11
g12
sS'r'
I5
sg13
I00
sg14
Nsg15
I12
sba(iGraph
Node
p3812
(dp3813
g8
(lp3814
sg10
Nsg11
g12
sS'r'
I5
sg13
I00
sg14
Nsg15
I13
sba(iGraph
Node
p3815
(dp3816
g8
(lp3817
sg10
Nsg11
g12
sS'r'
I5
sg13
I00
sg14
Nsg15
I14
sbasg58
I0
sg59
I0
sg60
Nsg61
I0
sg62
I15
sg63
I5
sg64
I0
sg65
(lp3818
sg67
I0
sg68
(lp3819
sba(iGraph
Graph
p3820
(dp3821
g4
(lp3822
(iGraph
Node
p3823
(dp3824
g8
(lp3825
sg10
Nsg11
g12
sS'r'
I5
sg13
I00
sg14
Nsg15
I0
sba(iGraph
Node
p3826
(dp3827
g8
(lp3828
sg10
Nsg11
g12
sS'r'
I5
sg13
I00
sg14
Nsg15
I1
sba(iGraph
Node
p3829
(dp3830
g8
(lp3831
sg10
Nsg11
g12
sS'r'
I5
sg13
I00
sg14
Nsg15
I2
sba(iGraph
Node
p3832
(dp3833
g8
(lp3834
sg10
Nsg11
g12
sS'r'
I5
sg13
I00
sg14
Nsg15
I3
sba(iGraph
Node
p3835
(dp3836
g8
(lp3837
sg10
Nsg11
g12
sS'r'
I5
sg13
I00
sg14
Nsg15
I4
sba(iGraph
Node
p3838
(dp3839
g8
(lp3840
sg10
Nsg11
g12
sS'r'
I5
sg13
I00
sg14
Nsg15
I5
sba(iGraph
Node
p3841
(dp3842
g8
(lp3843
sg10
Nsg11
g12
sS'r'
I5
sg13
I00
sg14
Nsg15
I6
sba(iGraph
Node
p3844
(dp3845
g8
(lp3846
sg10
Nsg11
g12
sS'r'
I5
sg13
I00
sg14
Nsg15
I7
sba(iGraph
Node
p3847
(dp3848
g8
(lp3849
sg10
Nsg11
g12
sS'r'
I5
sg13
I00
sg14
Nsg15
I8
sba(iGraph
Node
p3850
(dp3851
g8
(lp3852
sg10
Nsg11
g12
sS'r'
I5
sg13
I00
sg14
Nsg15
I9
sba(iGraph
Node
p3853
(dp3854
g8
(lp3855
sg10
Nsg11
g12
sS'r'
I5
sg13
I00
sg14
Nsg15
I10
sba(iGraph
Node
p3856
(dp3857
g8
(lp3858
sg10
Nsg11
g12
sS'r'
I5
sg13
I00
sg14
Nsg15
I11
sba(iGraph
Node
p3859
(dp3860
g8
(lp3861
sg10
Nsg11
g12
sS'r'
I5
sg13
I00
sg14
Nsg15
I12
sba(iGraph
Node
p3862
(dp3863
g8
(lp3864
sg10
Nsg11
g12
sS'r'
I5
sg13
I00
sg14
Nsg15
I13
sba(iGraph
Node
p3865
(dp3866
g8
(lp3867
sg10
Nsg11
g12
sS'r'
I5
sg13
I00
sg14
Nsg15
I14
sbasg58
I0
sg59
I0
sg60
Nsg61
I0
sg62
I15
sg63
I5
sg64
I0
sg65
(lp3868
sg67
I0
sg68
(lp3869
sba(iGraph
Graph
p3870
(dp3871
g4
(lp3872
(iGraph
Node
p3873
(dp3874
g8
(lp3875
sg10
Nsg11
g12
sS'r'
I5
sg13
I00
sg14
Nsg15
I0
sba(iGraph
Node
p3876
(dp3877
g8
(lp3878
sg10
Nsg11
g12
sS'r'
I5
sg13
I00
sg14
Nsg15
I1
sba(iGraph
Node
p3879
(dp3880
g8
(lp3881
sg10
Nsg11
g12
sS'r'
I5
sg13
I00
sg14
Nsg15
I2
sba(iGraph
Node
p3882
(dp3883
g8
(lp3884
sg10
Nsg11
g12
sS'r'
I5
sg13
I00
sg14
Nsg15
I3
sba(iGraph
Node
p3885
(dp3886
g8
(lp3887
sg10
Nsg11
g12
sS'r'
I5
sg13
I00
sg14
Nsg15
I4
sba(iGraph
Node
p3888
(dp3889
g8
(lp3890
sg10
Nsg11
g12
sS'r'
I5
sg13
I00
sg14
Nsg15
I5
sba(iGraph
Node
p3891
(dp3892
g8
(lp3893
sg10
Nsg11
g12
sS'r'
I5
sg13
I00
sg14
Nsg15
I6
sba(iGraph
Node
p3894
(dp3895
g8
(lp3896
sg10
Nsg11
g12
sS'r'
I5
sg13
I00
sg14
Nsg15
I7
sba(iGraph
Node
p3897
(dp3898
g8
(lp3899
sg10
Nsg11
g12
sS'r'
I5
sg13
I00
sg14
Nsg15
I8
sba(iGraph
Node
p3900
(dp3901
g8
(lp3902
sg10
Nsg11
g12
sS'r'
I5
sg13
I00
sg14
Nsg15
I9
sba(iGraph
Node
p3903
(dp3904
g8
(lp3905
sg10
Nsg11
g12
sS'r'
I5
sg13
I00
sg14
Nsg15
I10
sba(iGraph
Node
p3906
(dp3907
g8
(lp3908
sg10
Nsg11
g12
sS'r'
I5
sg13
I00
sg14
Nsg15
I11
sba(iGraph
Node
p3909
(dp3910
g8
(lp3911
sg10
Nsg11
g12
sS'r'
I5
sg13
I00
sg14
Nsg15
I12
sba(iGraph
Node
p3912
(dp3913
g8
(lp3914
sg10
Nsg11
g12
sS'r'
I5
sg13
I00
sg14
Nsg15
I13
sba(iGraph
Node
p3915
(dp3916
g8
(lp3917
sg10
Nsg11
g12
sS'r'
I5
sg13
I00
sg14
Nsg15
I14
sbasg58
I0
sg59
I0
sg60
Nsg61
I0
sg62
I15
sg63
I5
sg64
I0
sg65
(lp3918
sg67
I0
sg68
(lp3919
sba(iGraph
Graph
p3920
(dp3921
g4
(lp3922
(iGraph
Node
p3923
(dp3924
g8
(lp3925
sg10
Nsg11
g12
sS'r'
I5
sg13
I00
sg14
Nsg15
I0
sba(iGraph
Node
p3926
(dp3927
g8
(lp3928
sg10
Nsg11
g12
sS'r'
I5
sg13
I00
sg14
Nsg15
I1
sba(iGraph
Node
p3929
(dp3930
g8
(lp3931
sg10
Nsg11
g12
sS'r'
I5
sg13
I00
sg14
Nsg15
I2
sba(iGraph
Node
p3932
(dp3933
g8
(lp3934
sg10
Nsg11
g12
sS'r'
I5
sg13
I00
sg14
Nsg15
I3
sba(iGraph
Node
p3935
(dp3936
g8
(lp3937
sg10
Nsg11
g12
sS'r'
I5
sg13
I00
sg14
Nsg15
I4
sba(iGraph
Node
p3938
(dp3939
g8
(lp3940
sg10
Nsg11
g12
sS'r'
I5
sg13
I00
sg14
Nsg15
I5
sba(iGraph
Node
p3941
(dp3942
g8
(lp3943
sg10
Nsg11
g12
sS'r'
I5
sg13
I00
sg14
Nsg15
I6
sba(iGraph
Node
p3944
(dp3945
g8
(lp3946
sg10
Nsg11
g12
sS'r'
I5
sg13
I00
sg14
Nsg15
I7
sba(iGraph
Node
p3947
(dp3948
g8
(lp3949
sg10
Nsg11
g12
sS'r'
I5
sg13
I00
sg14
Nsg15
I8
sba(iGraph
Node
p3950
(dp3951
g8
(lp3952
sg10
Nsg11
g12
sS'r'
I5
sg13
I00
sg14
Nsg15
I9
sba(iGraph
Node
p3953
(dp3954
g8
(lp3955
sg10
Nsg11
g12
sS'r'
I5
sg13
I00
sg14
Nsg15
I10
sba(iGraph
Node
p3956
(dp3957
g8
(lp3958
sg10
Nsg11
g12
sS'r'
I5
sg13
I00
sg14
Nsg15
I11
sba(iGraph
Node
p3959
(dp3960
g8
(lp3961
sg10
Nsg11
g12
sS'r'
I5
sg13
I00
sg14
Nsg15
I12
sba(iGraph
Node
p3962
(dp3963
g8
(lp3964
sg10
Nsg11
g12
sS'r'
I5
sg13
I00
sg14
Nsg15
I13
sba(iGraph
Node
p3965
(dp3966
g8
(lp3967
sg10
Nsg11
g12
sS'r'
I5
sg13
I00
sg14
Nsg15
I14
sbasg58
I0
sg59
I0
sg60
Nsg61
I0
sg62
I15
sg63
I5
sg64
I0
sg65
(lp3968
sg67
I0
sg68
(lp3969
sba(iGraph
Graph
p3970
(dp3971
g4
(lp3972
(iGraph
Node
p3973
(dp3974
g8
(lp3975
sg10
Nsg11
g12
sS'r'
I5
sg13
I00
sg14
Nsg15
I0
sba(iGraph
Node
p3976
(dp3977
g8
(lp3978
sg10
Nsg11
g12
sS'r'
I5
sg13
I00
sg14
Nsg15
I1
sba(iGraph
Node
p3979
(dp3980
g8
(lp3981
sg10
Nsg11
g12
sS'r'
I5
sg13
I00
sg14
Nsg15
I2
sba(iGraph
Node
p3982
(dp3983
g8
(lp3984
sg10
Nsg11
g12
sS'r'
I5
sg13
I00
sg14
Nsg15
I3
sba(iGraph
Node
p3985
(dp3986
g8
(lp3987
sg10
Nsg11
g12
sS'r'
I5
sg13
I00
sg14
Nsg15
I4
sba(iGraph
Node
p3988
(dp3989
g8
(lp3990
sg10
Nsg11
g12
sS'r'
I5
sg13
I00
sg14
Nsg15
I5
sba(iGraph
Node
p3991
(dp3992
g8
(lp3993
sg10
Nsg11
g12
sS'r'
I5
sg13
I00
sg14
Nsg15
I6
sba(iGraph
Node
p3994
(dp3995
g8
(lp3996
sg10
Nsg11
g12
sS'r'
I5
sg13
I00
sg14
Nsg15
I7
sba(iGraph
Node
p3997
(dp3998
g8
(lp3999
sg10
Nsg11
g12
sS'r'
I5
sg13
I00
sg14
Nsg15
I8
sba(iGraph
Node
p4000
(dp4001
g8
(lp4002
sg10
Nsg11
g12
sS'r'
I5
sg13
I00
sg14
Nsg15
I9
sba(iGraph
Node
p4003
(dp4004
g8
(lp4005
sg10
Nsg11
g12
sS'r'
I5
sg13
I00
sg14
Nsg15
I10
sba(iGraph
Node
p4006
(dp4007
g8
(lp4008
sg10
Nsg11
g12
sS'r'
I5
sg13
I00
sg14
Nsg15
I11
sba(iGraph
Node
p4009
(dp4010
g8
(lp4011
sg10
Nsg11
g12
sS'r'
I5
sg13
I00
sg14
Nsg15
I12
sba(iGraph
Node
p4012
(dp4013
g8
(lp4014
sg10
Nsg11
g12
sS'r'
I5
sg13
I00
sg14
Nsg15
I13
sba(iGraph
Node
p4015
(dp4016
g8
(lp4017
sg10
Nsg11
g12
sS'r'
I5
sg13
I00
sg14
Nsg15
I14
sbasg58
I0
sg59
I0
sg60
Nsg61
I0
sg62
I15
sg63
I5
sg64
I0
sg65
(lp4018
sg67
I0
sg68
(lp4019
sba(iGraph
Graph
p4020
(dp4021
g4
(lp4022
(iGraph
Node
p4023
(dp4024
g8
(lp4025
sg10
Nsg11
g12
sS'r'
I5
sg13
I00
sg14
Nsg15
I0
sba(iGraph
Node
p4026
(dp4027
g8
(lp4028
sg10
Nsg11
g12
sS'r'
I5
sg13
I00
sg14
Nsg15
I1
sba(iGraph
Node
p4029
(dp4030
g8
(lp4031
sg10
Nsg11
g12
sS'r'
I5
sg13
I00
sg14
Nsg15
I2
sba(iGraph
Node
p4032
(dp4033
g8
(lp4034
sg10
Nsg11
g12
sS'r'
I5
sg13
I00
sg14
Nsg15
I3
sba(iGraph
Node
p4035
(dp4036
g8
(lp4037
sg10
Nsg11
g12
sS'r'
I5
sg13
I00
sg14
Nsg15
I4
sba(iGraph
Node
p4038
(dp4039
g8
(lp4040
sg10
Nsg11
g12
sS'r'
I5
sg13
I00
sg14
Nsg15
I5
sba(iGraph
Node
p4041
(dp4042
g8
(lp4043
sg10
Nsg11
g12
sS'r'
I5
sg13
I00
sg14
Nsg15
I6
sba(iGraph
Node
p4044
(dp4045
g8
(lp4046
sg10
Nsg11
g12
sS'r'
I5
sg13
I00
sg14
Nsg15
I7
sba(iGraph
Node
p4047
(dp4048
g8
(lp4049
sg10
Nsg11
g12
sS'r'
I5
sg13
I00
sg14
Nsg15
I8
sba(iGraph
Node
p4050
(dp4051
g8
(lp4052
sg10
Nsg11
g12
sS'r'
I5
sg13
I00
sg14
Nsg15
I9
sba(iGraph
Node
p4053
(dp4054
g8
(lp4055
sg10
Nsg11
g12
sS'r'
I5
sg13
I00
sg14
Nsg15
I10
sba(iGraph
Node
p4056
(dp4057
g8
(lp4058
sg10
Nsg11
g12
sS'r'
I5
sg13
I00
sg14
Nsg15
I11
sba(iGraph
Node
p4059
(dp4060
g8
(lp4061
sg10
Nsg11
g12
sS'r'
I5
sg13
I00
sg14
Nsg15
I12
sba(iGraph
Node
p4062
(dp4063
g8
(lp4064
sg10
Nsg11
g12
sS'r'
I5
sg13
I00
sg14
Nsg15
I13
sba(iGraph
Node
p4065
(dp4066
g8
(lp4067
sg10
Nsg11
g12
sS'r'
I5
sg13
I00
sg14
Nsg15
I14
sbasg58
I0
sg59
I0
sg60
Nsg61
I0
sg62
I15
sg63
I5
sg64
I0
sg65
(lp4068
sg67
I0
sg68
(lp4069
sba(iGraph
Graph
p4070
(dp4071
g4
(lp4072
(iGraph
Node
p4073
(dp4074
g8
(lp4075
sg10
Nsg11
g12
sS'r'
I5
sg13
I00
sg14
Nsg15
I0
sba(iGraph
Node
p4076
(dp4077
g8
(lp4078
sg10
Nsg11
g12
sS'r'
I5
sg13
I00
sg14
Nsg15
I1
sba(iGraph
Node
p4079
(dp4080
g8
(lp4081
sg10
Nsg11
g12
sS'r'
I5
sg13
I00
sg14
Nsg15
I2
sba(iGraph
Node
p4082
(dp4083
g8
(lp4084
sg10
Nsg11
g12
sS'r'
I5
sg13
I00
sg14
Nsg15
I3
sba(iGraph
Node
p4085
(dp4086
g8
(lp4087
sg10
Nsg11
g12
sS'r'
I5
sg13
I00
sg14
Nsg15
I4
sba(iGraph
Node
p4088
(dp4089
g8
(lp4090
sg10
Nsg11
g12
sS'r'
I5
sg13
I00
sg14
Nsg15
I5
sba(iGraph
Node
p4091
(dp4092
g8
(lp4093
sg10
Nsg11
g12
sS'r'
I5
sg13
I00
sg14
Nsg15
I6
sba(iGraph
Node
p4094
(dp4095
g8
(lp4096
sg10
Nsg11
g12
sS'r'
I5
sg13
I00
sg14
Nsg15
I7
sba(iGraph
Node
p4097
(dp4098
g8
(lp4099
sg10
Nsg11
g12
sS'r'
I5
sg13
I00
sg14
Nsg15
I8
sba(iGraph
Node
p4100
(dp4101
g8
(lp4102
sg10
Nsg11
g12
sS'r'
I5
sg13
I00
sg14
Nsg15
I9
sba(iGraph
Node
p4103
(dp4104
g8
(lp4105
sg10
Nsg11
g12
sS'r'
I5
sg13
I00
sg14
Nsg15
I10
sba(iGraph
Node
p4106
(dp4107
g8
(lp4108
sg10
Nsg11
g12
sS'r'
I5
sg13
I00
sg14
Nsg15
I11
sba(iGraph
Node
p4109
(dp4110
g8
(lp4111
sg10
Nsg11
g12
sS'r'
I5
sg13
I00
sg14
Nsg15
I12
sba(iGraph
Node
p4112
(dp4113
g8
(lp4114
sg10
Nsg11
g12
sS'r'
I5
sg13
I00
sg14
Nsg15
I13
sba(iGraph
Node
p4115
(dp4116
g8
(lp4117
sg10
Nsg11
g12
sS'r'
I5
sg13
I00
sg14
Nsg15
I14
sbasg58
I0
sg59
I0
sg60
Nsg61
I0
sg62
I15
sg63
I5
sg64
I0
sg65
(lp4118
sg67
I0
sg68
(lp4119
sba(iGraph
Graph
p4120
(dp4121
g4
(lp4122
(iGraph
Node
p4123
(dp4124
g8
(lp4125
sg10
Nsg11
g12
sS'r'
I5
sg13
I00
sg14
Nsg15
I0
sba(iGraph
Node
p4126
(dp4127
g8
(lp4128
sg10
Nsg11
g12
sS'r'
I5
sg13
I00
sg14
Nsg15
I1
sba(iGraph
Node
p4129
(dp4130
g8
(lp4131
sg10
Nsg11
g12
sS'r'
I5
sg13
I00
sg14
Nsg15
I2
sba(iGraph
Node
p4132
(dp4133
g8
(lp4134
sg10
Nsg11
g12
sS'r'
I5
sg13
I00
sg14
Nsg15
I3
sba(iGraph
Node
p4135
(dp4136
g8
(lp4137
sg10
Nsg11
g12
sS'r'
I5
sg13
I00
sg14
Nsg15
I4
sba(iGraph
Node
p4138
(dp4139
g8
(lp4140
sg10
Nsg11
g12
sS'r'
I5
sg13
I00
sg14
Nsg15
I5
sba(iGraph
Node
p4141
(dp4142
g8
(lp4143
sg10
Nsg11
g12
sS'r'
I5
sg13
I00
sg14
Nsg15
I6
sba(iGraph
Node
p4144
(dp4145
g8
(lp4146
sg10
Nsg11
g12
sS'r'
I5
sg13
I00
sg14
Nsg15
I7
sba(iGraph
Node
p4147
(dp4148
g8
(lp4149
sg10
Nsg11
g12
sS'r'
I5
sg13
I00
sg14
Nsg15
I8
sba(iGraph
Node
p4150
(dp4151
g8
(lp4152
sg10
Nsg11
g12
sS'r'
I5
sg13
I00
sg14
Nsg15
I9
sba(iGraph
Node
p4153
(dp4154
g8
(lp4155
sg10
Nsg11
g12
sS'r'
I5
sg13
I00
sg14
Nsg15
I10
sba(iGraph
Node
p4156
(dp4157
g8
(lp4158
sg10
Nsg11
g12
sS'r'
I5
sg13
I00
sg14
Nsg15
I11
sba(iGraph
Node
p4159
(dp4160
g8
(lp4161
sg10
Nsg11
g12
sS'r'
I5
sg13
I00
sg14
Nsg15
I12
sba(iGraph
Node
p4162
(dp4163
g8
(lp4164
sg10
Nsg11
g12
sS'r'
I5
sg13
I00
sg14
Nsg15
I13
sba(iGraph
Node
p4165
(dp4166
g8
(lp4167
sg10
Nsg11
g12
sS'r'
I5
sg13
I00
sg14
Nsg15
I14
sbasg58
I0
sg59
I0
sg60
Nsg61
I0
sg62
I15
sg63
I5
sg64
I0
sg65
(lp4168
sg67
I0
sg68
(lp4169
sba(iGraph
Graph
p4170
(dp4171
g4
(lp4172
(iGraph
Node
p4173
(dp4174
g8
(lp4175
sg10
Nsg11
g12
sS'r'
I5
sg13
I00
sg14
Nsg15
I0
sba(iGraph
Node
p4176
(dp4177
g8
(lp4178
sg10
Nsg11
g12
sS'r'
I5
sg13
I00
sg14
Nsg15
I1
sba(iGraph
Node
p4179
(dp4180
g8
(lp4181
sg10
Nsg11
g12
sS'r'
I5
sg13
I00
sg14
Nsg15
I2
sba(iGraph
Node
p4182
(dp4183
g8
(lp4184
sg10
Nsg11
g12
sS'r'
I5
sg13
I00
sg14
Nsg15
I3
sba(iGraph
Node
p4185
(dp4186
g8
(lp4187
sg10
Nsg11
g12
sS'r'
I5
sg13
I00
sg14
Nsg15
I4
sba(iGraph
Node
p4188
(dp4189
g8
(lp4190
sg10
Nsg11
g12
sS'r'
I5
sg13
I00
sg14
Nsg15
I5
sba(iGraph
Node
p4191
(dp4192
g8
(lp4193
sg10
Nsg11
g12
sS'r'
I5
sg13
I00
sg14
Nsg15
I6
sba(iGraph
Node
p4194
(dp4195
g8
(lp4196
sg10
Nsg11
g12
sS'r'
I5
sg13
I00
sg14
Nsg15
I7
sba(iGraph
Node
p4197
(dp4198
g8
(lp4199
sg10
Nsg11
g12
sS'r'
I5
sg13
I00
sg14
Nsg15
I8
sba(iGraph
Node
p4200
(dp4201
g8
(lp4202
sg10
Nsg11
g12
sS'r'
I5
sg13
I00
sg14
Nsg15
I9
sba(iGraph
Node
p4203
(dp4204
g8
(lp4205
sg10
Nsg11
g12
sS'r'
I5
sg13
I00
sg14
Nsg15
I10
sba(iGraph
Node
p4206
(dp4207
g8
(lp4208
sg10
Nsg11
g12
sS'r'
I5
sg13
I00
sg14
Nsg15
I11
sba(iGraph
Node
p4209
(dp4210
g8
(lp4211
sg10
Nsg11
g12
sS'r'
I5
sg13
I00
sg14
Nsg15
I12
sba(iGraph
Node
p4212
(dp4213
g8
(lp4214
sg10
Nsg11
g12
sS'r'
I5
sg13
I00
sg14
Nsg15
I13
sba(iGraph
Node
p4215
(dp4216
g8
(lp4217
sg10
Nsg11
g12
sS'r'
I5
sg13
I00
sg14
Nsg15
I14
sbasg58
I0
sg59
I0
sg60
Nsg61
I0
sg62
I15
sg63
I5
sg64
I0
sg65
(lp4218
sg67
I0
sg68
(lp4219
sba(iGraph
Graph
p4220
(dp4221
g4
(lp4222
(iGraph
Node
p4223
(dp4224
g8
(lp4225
sg10
Nsg11
g12
sS'r'
I5
sg13
I00
sg14
Nsg15
I0
sba(iGraph
Node
p4226
(dp4227
g8
(lp4228
sg10
Nsg11
g12
sS'r'
I5
sg13
I00
sg14
Nsg15
I1
sba(iGraph
Node
p4229
(dp4230
g8
(lp4231
sg10
Nsg11
g12
sS'r'
I5
sg13
I00
sg14
Nsg15
I2
sba(iGraph
Node
p4232
(dp4233
g8
(lp4234
sg10
Nsg11
g12
sS'r'
I5
sg13
I00
sg14
Nsg15
I3
sba(iGraph
Node
p4235
(dp4236
g8
(lp4237
sg10
Nsg11
g12
sS'r'
I5
sg13
I00
sg14
Nsg15
I4
sba(iGraph
Node
p4238
(dp4239
g8
(lp4240
sg10
Nsg11
g12
sS'r'
I5
sg13
I00
sg14
Nsg15
I5
sba(iGraph
Node
p4241
(dp4242
g8
(lp4243
sg10
Nsg11
g12
sS'r'
I5
sg13
I00
sg14
Nsg15
I6
sba(iGraph
Node
p4244
(dp4245
g8
(lp4246
sg10
Nsg11
g12
sS'r'
I5
sg13
I00
sg14
Nsg15
I7
sba(iGraph
Node
p4247
(dp4248
g8
(lp4249
sg10
Nsg11
g12
sS'r'
I5
sg13
I00
sg14
Nsg15
I8
sba(iGraph
Node
p4250
(dp4251
g8
(lp4252
sg10
Nsg11
g12
sS'r'
I5
sg13
I00
sg14
Nsg15
I9
sba(iGraph
Node
p4253
(dp4254
g8
(lp4255
sg10
Nsg11
g12
sS'r'
I5
sg13
I00
sg14
Nsg15
I10
sba(iGraph
Node
p4256
(dp4257
g8
(lp4258
sg10
Nsg11
g12
sS'r'
I5
sg13
I00
sg14
Nsg15
I11
sba(iGraph
Node
p4259
(dp4260
g8
(lp4261
sg10
Nsg11
g12
sS'r'
I5
sg13
I00
sg14
Nsg15
I12
sba(iGraph
Node
p4262
(dp4263
g8
(lp4264
sg10
Nsg11
g12
sS'r'
I5
sg13
I00
sg14
Nsg15
I13
sba(iGraph
Node
p4265
(dp4266
g8
(lp4267
sg10
Nsg11
g12
sS'r'
I5
sg13
I00
sg14
Nsg15
I14
sbasg58
I0
sg59
I0
sg60
Nsg61
I0
sg62
I15
sg63
I5
sg64
I0
sg65
(lp4268
sg67
I0
sg68
(lp4269
sba(iGraph
Graph
p4270
(dp4271
g4
(lp4272
(iGraph
Node
p4273
(dp4274
g8
(lp4275
sg10
Nsg11
g12
sS'r'
I5
sg13
I00
sg14
Nsg15
I0
sba(iGraph
Node
p4276
(dp4277
g8
(lp4278
sg10
Nsg11
g12
sS'r'
I5
sg13
I00
sg14
Nsg15
I1
sba(iGraph
Node
p4279
(dp4280
g8
(lp4281
sg10
Nsg11
g12
sS'r'
I5
sg13
I00
sg14
Nsg15
I2
sba(iGraph
Node
p4282
(dp4283
g8
(lp4284
sg10
Nsg11
g12
sS'r'
I5
sg13
I00
sg14
Nsg15
I3
sba(iGraph
Node
p4285
(dp4286
g8
(lp4287
sg10
Nsg11
g12
sS'r'
I5
sg13
I00
sg14
Nsg15
I4
sba(iGraph
Node
p4288
(dp4289
g8
(lp4290
sg10
Nsg11
g12
sS'r'
I5
sg13
I00
sg14
Nsg15
I5
sba(iGraph
Node
p4291
(dp4292
g8
(lp4293
sg10
Nsg11
g12
sS'r'
I5
sg13
I00
sg14
Nsg15
I6
sba(iGraph
Node
p4294
(dp4295
g8
(lp4296
sg10
Nsg11
g12
sS'r'
I5
sg13
I00
sg14
Nsg15
I7
sba(iGraph
Node
p4297
(dp4298
g8
(lp4299
sg10
Nsg11
g12
sS'r'
I5
sg13
I00
sg14
Nsg15
I8
sba(iGraph
Node
p4300
(dp4301
g8
(lp4302
sg10
Nsg11
g12
sS'r'
I5
sg13
I00
sg14
Nsg15
I9
sba(iGraph
Node
p4303
(dp4304
g8
(lp4305
sg10
Nsg11
g12
sS'r'
I5
sg13
I00
sg14
Nsg15
I10
sba(iGraph
Node
p4306
(dp4307
g8
(lp4308
sg10
Nsg11
g12
sS'r'
I5
sg13
I00
sg14
Nsg15
I11
sba(iGraph
Node
p4309
(dp4310
g8
(lp4311
sg10
Nsg11
g12
sS'r'
I5
sg13
I00
sg14
Nsg15
I12
sba(iGraph
Node
p4312
(dp4313
g8
(lp4314
sg10
Nsg11
g12
sS'r'
I5
sg13
I00
sg14
Nsg15
I13
sba(iGraph
Node
p4315
(dp4316
g8
(lp4317
sg10
Nsg11
g12
sS'r'
I5
sg13
I00
sg14
Nsg15
I14
sbasg58
I0
sg59
I0
sg60
Nsg61
I0
sg62
I15
sg63
I5
sg64
I0
sg65
(lp4318
sg67
I0
sg68
(lp4319
sba(iGraph
Graph
p4320
(dp4321
g4
(lp4322
(iGraph
Node
p4323
(dp4324
g8
(lp4325
sg10
Nsg11
g12
sS'r'
I5
sg13
I00
sg14
Nsg15
I0
sba(iGraph
Node
p4326
(dp4327
g8
(lp4328
sg10
Nsg11
g12
sS'r'
I5
sg13
I00
sg14
Nsg15
I1
sba(iGraph
Node
p4329
(dp4330
g8
(lp4331
sg10
Nsg11
g12
sS'r'
I5
sg13
I00
sg14
Nsg15
I2
sba(iGraph
Node
p4332
(dp4333
g8
(lp4334
sg10
Nsg11
g12
sS'r'
I5
sg13
I00
sg14
Nsg15
I3
sba(iGraph
Node
p4335
(dp4336
g8
(lp4337
sg10
Nsg11
g12
sS'r'
I5
sg13
I00
sg14
Nsg15
I4
sba(iGraph
Node
p4338
(dp4339
g8
(lp4340
sg10
Nsg11
g12
sS'r'
I5
sg13
I00
sg14
Nsg15
I5
sba(iGraph
Node
p4341
(dp4342
g8
(lp4343
sg10
Nsg11
g12
sS'r'
I5
sg13
I00
sg14
Nsg15
I6
sba(iGraph
Node
p4344
(dp4345
g8
(lp4346
sg10
Nsg11
g12
sS'r'
I5
sg13
I00
sg14
Nsg15
I7
sba(iGraph
Node
p4347
(dp4348
g8
(lp4349
sg10
Nsg11
g12
sS'r'
I5
sg13
I00
sg14
Nsg15
I8
sba(iGraph
Node
p4350
(dp4351
g8
(lp4352
sg10
Nsg11
g12
sS'r'
I5
sg13
I00
sg14
Nsg15
I9
sba(iGraph
Node
p4353
(dp4354
g8
(lp4355
sg10
Nsg11
g12
sS'r'
I5
sg13
I00
sg14
Nsg15
I10
sba(iGraph
Node
p4356
(dp4357
g8
(lp4358
sg10
Nsg11
g12
sS'r'
I5
sg13
I00
sg14
Nsg15
I11
sba(iGraph
Node
p4359
(dp4360
g8
(lp4361
sg10
Nsg11
g12
sS'r'
I5
sg13
I00
sg14
Nsg15
I12
sba(iGraph
Node
p4362
(dp4363
g8
(lp4364
sg10
Nsg11
g12
sS'r'
I5
sg13
I00
sg14
Nsg15
I13
sba(iGraph
Node
p4365
(dp4366
g8
(lp4367
sg10
Nsg11
g12
sS'r'
I5
sg13
I00
sg14
Nsg15
I14
sbasg58
I0
sg59
I0
sg60
Nsg61
I0
sg62
I15
sg63
I5
sg64
I0
sg65
(lp4368
sg67
I0
sg68
(lp4369
sba(iGraph
Graph
p4370
(dp4371
g4
(lp4372
(iGraph
Node
p4373
(dp4374
g8
(lp4375
sg10
Nsg11
g12
sS'r'
I5
sg13
I00
sg14
Nsg15
I0
sba(iGraph
Node
p4376
(dp4377
g8
(lp4378
sg10
Nsg11
g12
sS'r'
I5
sg13
I00
sg14
Nsg15
I1
sba(iGraph
Node
p4379
(dp4380
g8
(lp4381
sg10
Nsg11
g12
sS'r'
I5
sg13
I00
sg14
Nsg15
I2
sba(iGraph
Node
p4382
(dp4383
g8
(lp4384
sg10
Nsg11
g12
sS'r'
I5
sg13
I00
sg14
Nsg15
I3
sba(iGraph
Node
p4385
(dp4386
g8
(lp4387
sg10
Nsg11
g12
sS'r'
I5
sg13
I00
sg14
Nsg15
I4
sba(iGraph
Node
p4388
(dp4389
g8
(lp4390
sg10
Nsg11
g12
sS'r'
I5
sg13
I00
sg14
Nsg15
I5
sba(iGraph
Node
p4391
(dp4392
g8
(lp4393
sg10
Nsg11
g12
sS'r'
I5
sg13
I00
sg14
Nsg15
I6
sba(iGraph
Node
p4394
(dp4395
g8
(lp4396
sg10
Nsg11
g12
sS'r'
I5
sg13
I00
sg14
Nsg15
I7
sba(iGraph
Node
p4397
(dp4398
g8
(lp4399
sg10
Nsg11
g12
sS'r'
I5
sg13
I00
sg14
Nsg15
I8
sba(iGraph
Node
p4400
(dp4401
g8
(lp4402
sg10
Nsg11
g12
sS'r'
I5
sg13
I00
sg14
Nsg15
I9
sba(iGraph
Node
p4403
(dp4404
g8
(lp4405
sg10
Nsg11
g12
sS'r'
I5
sg13
I00
sg14
Nsg15
I10
sba(iGraph
Node
p4406
(dp4407
g8
(lp4408
sg10
Nsg11
g12
sS'r'
I5
sg13
I00
sg14
Nsg15
I11
sba(iGraph
Node
p4409
(dp4410
g8
(lp4411
sg10
Nsg11
g12
sS'r'
I5
sg13
I00
sg14
Nsg15
I12
sba(iGraph
Node
p4412
(dp4413
g8
(lp4414
sg10
Nsg11
g12
sS'r'
I5
sg13
I00
sg14
Nsg15
I13
sba(iGraph
Node
p4415
(dp4416
g8
(lp4417
sg10
Nsg11
g12
sS'r'
I5
sg13
I00
sg14
Nsg15
I14
sbasg58
I0
sg59
I0
sg60
Nsg61
I0
sg62
I15
sg63
I5
sg64
I0
sg65
(lp4418
sg67
I0
sg68
(lp4419
sba(iGraph
Graph
p4420
(dp4421
g4
(lp4422
(iGraph
Node
p4423
(dp4424
g8
(lp4425
sg10
Nsg11
g12
sS'r'
I5
sg13
I00
sg14
Nsg15
I0
sba(iGraph
Node
p4426
(dp4427
g8
(lp4428
sg10
Nsg11
g12
sS'r'
I5
sg13
I00
sg14
Nsg15
I1
sba(iGraph
Node
p4429
(dp4430
g8
(lp4431
sg10
Nsg11
g12
sS'r'
I5
sg13
I00
sg14
Nsg15
I2
sba(iGraph
Node
p4432
(dp4433
g8
(lp4434
sg10
Nsg11
g12
sS'r'
I5
sg13
I00
sg14
Nsg15
I3
sba(iGraph
Node
p4435
(dp4436
g8
(lp4437
sg10
Nsg11
g12
sS'r'
I5
sg13
I00
sg14
Nsg15
I4
sba(iGraph
Node
p4438
(dp4439
g8
(lp4440
sg10
Nsg11
g12
sS'r'
I5
sg13
I00
sg14
Nsg15
I5
sba(iGraph
Node
p4441
(dp4442
g8
(lp4443
sg10
Nsg11
g12
sS'r'
I5
sg13
I00
sg14
Nsg15
I6
sba(iGraph
Node
p4444
(dp4445
g8
(lp4446
sg10
Nsg11
g12
sS'r'
I5
sg13
I00
sg14
Nsg15
I7
sba(iGraph
Node
p4447
(dp4448
g8
(lp4449
sg10
Nsg11
g12
sS'r'
I5
sg13
I00
sg14
Nsg15
I8
sba(iGraph
Node
p4450
(dp4451
g8
(lp4452
sg10
Nsg11
g12
sS'r'
I5
sg13
I00
sg14
Nsg15
I9
sba(iGraph
Node
p4453
(dp4454
g8
(lp4455
sg10
Nsg11
g12
sS'r'
I5
sg13
I00
sg14
Nsg15
I10
sba(iGraph
Node
p4456
(dp4457
g8
(lp4458
sg10
Nsg11
g12
sS'r'
I5
sg13
I00
sg14
Nsg15
I11
sba(iGraph
Node
p4459
(dp4460
g8
(lp4461
sg10
Nsg11
g12
sS'r'
I5
sg13
I00
sg14
Nsg15
I12
sba(iGraph
Node
p4462
(dp4463
g8
(lp4464
sg10
Nsg11
g12
sS'r'
I5
sg13
I00
sg14
Nsg15
I13
sba(iGraph
Node
p4465
(dp4466
g8
(lp4467
sg10
Nsg11
g12
sS'r'
I5
sg13
I00
sg14
Nsg15
I14
sbasg58
I0
sg59
I0
sg60
Nsg61
I0
sg62
I15
sg63
I5
sg64
I0
sg65
(lp4468
sg67
I0
sg68
(lp4469
sba(iGraph
Graph
p4470
(dp4471
g4
(lp4472
(iGraph
Node
p4473
(dp4474
g8
(lp4475
sg10
Nsg11
g12
sS'r'
I5
sg13
I00
sg14
Nsg15
I0
sba(iGraph
Node
p4476
(dp4477
g8
(lp4478
sg10
Nsg11
g12
sS'r'
I5
sg13
I00
sg14
Nsg15
I1
sba(iGraph
Node
p4479
(dp4480
g8
(lp4481
sg10
Nsg11
g12
sS'r'
I5
sg13
I00
sg14
Nsg15
I2
sba(iGraph
Node
p4482
(dp4483
g8
(lp4484
sg10
Nsg11
g12
sS'r'
I5
sg13
I00
sg14
Nsg15
I3
sba(iGraph
Node
p4485
(dp4486
g8
(lp4487
sg10
Nsg11
g12
sS'r'
I5
sg13
I00
sg14
Nsg15
I4
sba(iGraph
Node
p4488
(dp4489
g8
(lp4490
sg10
Nsg11
g12
sS'r'
I5
sg13
I00
sg14
Nsg15
I5
sba(iGraph
Node
p4491
(dp4492
g8
(lp4493
sg10
Nsg11
g12
sS'r'
I5
sg13
I00
sg14
Nsg15
I6
sba(iGraph
Node
p4494
(dp4495
g8
(lp4496
sg10
Nsg11
g12
sS'r'
I5
sg13
I00
sg14
Nsg15
I7
sba(iGraph
Node
p4497
(dp4498
g8
(lp4499
sg10
Nsg11
g12
sS'r'
I5
sg13
I00
sg14
Nsg15
I8
sba(iGraph
Node
p4500
(dp4501
g8
(lp4502
sg10
Nsg11
g12
sS'r'
I5
sg13
I00
sg14
Nsg15
I9
sba(iGraph
Node
p4503
(dp4504
g8
(lp4505
sg10
Nsg11
g12
sS'r'
I5
sg13
I00
sg14
Nsg15
I10
sba(iGraph
Node
p4506
(dp4507
g8
(lp4508
sg10
Nsg11
g12
sS'r'
I5
sg13
I00
sg14
Nsg15
I11
sba(iGraph
Node
p4509
(dp4510
g8
(lp4511
sg10
Nsg11
g12
sS'r'
I5
sg13
I00
sg14
Nsg15
I12
sba(iGraph
Node
p4512
(dp4513
g8
(lp4514
sg10
Nsg11
g12
sS'r'
I5
sg13
I00
sg14
Nsg15
I13
sba(iGraph
Node
p4515
(dp4516
g8
(lp4517
sg10
Nsg11
g12
sS'r'
I5
sg13
I00
sg14
Nsg15
I14
sbasg58
I0
sg59
I0
sg60
Nsg61
I0
sg62
I15
sg63
I5
sg64
I0
sg65
(lp4518
sg67
I0
sg68
(lp4519
sba(iGraph
Graph
p4520
(dp4521
g4
(lp4522
(iGraph
Node
p4523
(dp4524
g8
(lp4525
sg10
Nsg11
g12
sS'r'
I5
sg13
I00
sg14
Nsg15
I0
sba(iGraph
Node
p4526
(dp4527
g8
(lp4528
sg10
Nsg11
g12
sS'r'
I5
sg13
I00
sg14
Nsg15
I1
sba(iGraph
Node
p4529
(dp4530
g8
(lp4531
sg10
Nsg11
g12
sS'r'
I5
sg13
I00
sg14
Nsg15
I2
sba(iGraph
Node
p4532
(dp4533
g8
(lp4534
sg10
Nsg11
g12
sS'r'
I5
sg13
I00
sg14
Nsg15
I3
sba(iGraph
Node
p4535
(dp4536
g8
(lp4537
sg10
Nsg11
g12
sS'r'
I5
sg13
I00
sg14
Nsg15
I4
sba(iGraph
Node
p4538
(dp4539
g8
(lp4540
sg10
Nsg11
g12
sS'r'
I5
sg13
I00
sg14
Nsg15
I5
sba(iGraph
Node
p4541
(dp4542
g8
(lp4543
sg10
Nsg11
g12
sS'r'
I5
sg13
I00
sg14
Nsg15
I6
sba(iGraph
Node
p4544
(dp4545
g8
(lp4546
sg10
Nsg11
g12
sS'r'
I5
sg13
I00
sg14
Nsg15
I7
sba(iGraph
Node
p4547
(dp4548
g8
(lp4549
sg10
Nsg11
g12
sS'r'
I5
sg13
I00
sg14
Nsg15
I8
sba(iGraph
Node
p4550
(dp4551
g8
(lp4552
sg10
Nsg11
g12
sS'r'
I5
sg13
I00
sg14
Nsg15
I9
sba(iGraph
Node
p4553
(dp4554
g8
(lp4555
sg10
Nsg11
g12
sS'r'
I5
sg13
I00
sg14
Nsg15
I10
sba(iGraph
Node
p4556
(dp4557
g8
(lp4558
sg10
Nsg11
g12
sS'r'
I5
sg13
I00
sg14
Nsg15
I11
sba(iGraph
Node
p4559
(dp4560
g8
(lp4561
sg10
Nsg11
g12
sS'r'
I5
sg13
I00
sg14
Nsg15
I12
sba(iGraph
Node
p4562
(dp4563
g8
(lp4564
sg10
Nsg11
g12
sS'r'
I5
sg13
I00
sg14
Nsg15
I13
sba(iGraph
Node
p4565
(dp4566
g8
(lp4567
sg10
Nsg11
g12
sS'r'
I5
sg13
I00
sg14
Nsg15
I14
sbasg58
I0
sg59
I0
sg60
Nsg61
I0
sg62
I15
sg63
I5
sg64
I0
sg65
(lp4568
sg67
I0
sg68
(lp4569
sba(iGraph
Graph
p4570
(dp4571
g4
(lp4572
(iGraph
Node
p4573
(dp4574
g8
(lp4575
sg10
Nsg11
g12
sS'r'
I5
sg13
I00
sg14
Nsg15
I0
sba(iGraph
Node
p4576
(dp4577
g8
(lp4578
sg10
Nsg11
g12
sS'r'
I5
sg13
I00
sg14
Nsg15
I1
sba(iGraph
Node
p4579
(dp4580
g8
(lp4581
sg10
Nsg11
g12
sS'r'
I5
sg13
I00
sg14
Nsg15
I2
sba(iGraph
Node
p4582
(dp4583
g8
(lp4584
sg10
Nsg11
g12
sS'r'
I5
sg13
I00
sg14
Nsg15
I3
sba(iGraph
Node
p4585
(dp4586
g8
(lp4587
sg10
Nsg11
g12
sS'r'
I5
sg13
I00
sg14
Nsg15
I4
sba(iGraph
Node
p4588
(dp4589
g8
(lp4590
sg10
Nsg11
g12
sS'r'
I5
sg13
I00
sg14
Nsg15
I5
sba(iGraph
Node
p4591
(dp4592
g8
(lp4593
sg10
Nsg11
g12
sS'r'
I5
sg13
I00
sg14
Nsg15
I6
sba(iGraph
Node
p4594
(dp4595
g8
(lp4596
sg10
Nsg11
g12
sS'r'
I5
sg13
I00
sg14
Nsg15
I7
sba(iGraph
Node
p4597
(dp4598
g8
(lp4599
sg10
Nsg11
g12
sS'r'
I5
sg13
I00
sg14
Nsg15
I8
sba(iGraph
Node
p4600
(dp4601
g8
(lp4602
sg10
Nsg11
g12
sS'r'
I5
sg13
I00
sg14
Nsg15
I9
sba(iGraph
Node
p4603
(dp4604
g8
(lp4605
sg10
Nsg11
g12
sS'r'
I5
sg13
I00
sg14
Nsg15
I10
sba(iGraph
Node
p4606
(dp4607
g8
(lp4608
sg10
Nsg11
g12
sS'r'
I5
sg13
I00
sg14
Nsg15
I11
sba(iGraph
Node
p4609
(dp4610
g8
(lp4611
sg10
Nsg11
g12
sS'r'
I5
sg13
I00
sg14
Nsg15
I12
sba(iGraph
Node
p4612
(dp4613
g8
(lp4614
sg10
Nsg11
g12
sS'r'
I5
sg13
I00
sg14
Nsg15
I13
sba(iGraph
Node
p4615
(dp4616
g8
(lp4617
sg10
Nsg11
g12
sS'r'
I5
sg13
I00
sg14
Nsg15
I14
sbasg58
I0
sg59
I0
sg60
Nsg61
I0
sg62
I15
sg63
I5
sg64
I0
sg65
(lp4618
sg67
I0
sg68
(lp4619
sba(iGraph
Graph
p4620
(dp4621
g4
(lp4622
(iGraph
Node
p4623
(dp4624
g8
(lp4625
sg10
Nsg11
g12
sS'r'
I5
sg13
I00
sg14
Nsg15
I0
sba(iGraph
Node
p4626
(dp4627
g8
(lp4628
sg10
Nsg11
g12
sS'r'
I5
sg13
I00
sg14
Nsg15
I1
sba(iGraph
Node
p4629
(dp4630
g8
(lp4631
sg10
Nsg11
g12
sS'r'
I5
sg13
I00
sg14
Nsg15
I2
sba(iGraph
Node
p4632
(dp4633
g8
(lp4634
sg10
Nsg11
g12
sS'r'
I5
sg13
I00
sg14
Nsg15
I3
sba(iGraph
Node
p4635
(dp4636
g8
(lp4637
sg10
Nsg11
g12
sS'r'
I5
sg13
I00
sg14
Nsg15
I4
sba(iGraph
Node
p4638
(dp4639
g8
(lp4640
sg10
Nsg11
g12
sS'r'
I5
sg13
I00
sg14
Nsg15
I5
sba(iGraph
Node
p4641
(dp4642
g8
(lp4643
sg10
Nsg11
g12
sS'r'
I5
sg13
I00
sg14
Nsg15
I6
sba(iGraph
Node
p4644
(dp4645
g8
(lp4646
sg10
Nsg11
g12
sS'r'
I5
sg13
I00
sg14
Nsg15
I7
sba(iGraph
Node
p4647
(dp4648
g8
(lp4649
sg10
Nsg11
g12
sS'r'
I5
sg13
I00
sg14
Nsg15
I8
sba(iGraph
Node
p4650
(dp4651
g8
(lp4652
sg10
Nsg11
g12
sS'r'
I5
sg13
I00
sg14
Nsg15
I9
sba(iGraph
Node
p4653
(dp4654
g8
(lp4655
sg10
Nsg11
g12
sS'r'
I5
sg13
I00
sg14
Nsg15
I10
sba(iGraph
Node
p4656
(dp4657
g8
(lp4658
sg10
Nsg11
g12
sS'r'
I5
sg13
I00
sg14
Nsg15
I11
sba(iGraph
Node
p4659
(dp4660
g8
(lp4661
sg10
Nsg11
g12
sS'r'
I5
sg13
I00
sg14
Nsg15
I12
sba(iGraph
Node
p4662
(dp4663
g8
(lp4664
sg10
Nsg11
g12
sS'r'
I5
sg13
I00
sg14
Nsg15
I13
sba(iGraph
Node
p4665
(dp4666
g8
(lp4667
sg10
Nsg11
g12
sS'r'
I5
sg13
I00
sg14
Nsg15
I14
sbasg58
I0
sg59
I0
sg60
Nsg61
I0
sg62
I15
sg63
I5
sg64
I0
sg65
(lp4668
sg67
I0
sg68
(lp4669
sba(iGraph
Graph
p4670
(dp4671
g4
(lp4672
(iGraph
Node
p4673
(dp4674
g8
(lp4675
sg10
Nsg11
g12
sS'r'
I5
sg13
I00
sg14
Nsg15
I0
sba(iGraph
Node
p4676
(dp4677
g8
(lp4678
sg10
Nsg11
g12
sS'r'
I5
sg13
I00
sg14
Nsg15
I1
sba(iGraph
Node
p4679
(dp4680
g8
(lp4681
sg10
Nsg11
g12
sS'r'
I5
sg13
I00
sg14
Nsg15
I2
sba(iGraph
Node
p4682
(dp4683
g8
(lp4684
sg10
Nsg11
g12
sS'r'
I5
sg13
I00
sg14
Nsg15
I3
sba(iGraph
Node
p4685
(dp4686
g8
(lp4687
sg10
Nsg11
g12
sS'r'
I5
sg13
I00
sg14
Nsg15
I4
sba(iGraph
Node
p4688
(dp4689
g8
(lp4690
sg10
Nsg11
g12
sS'r'
I5
sg13
I00
sg14
Nsg15
I5
sba(iGraph
Node
p4691
(dp4692
g8
(lp4693
sg10
Nsg11
g12
sS'r'
I5
sg13
I00
sg14
Nsg15
I6
sba(iGraph
Node
p4694
(dp4695
g8
(lp4696
sg10
Nsg11
g12
sS'r'
I5
sg13
I00
sg14
Nsg15
I7
sba(iGraph
Node
p4697
(dp4698
g8
(lp4699
sg10
Nsg11
g12
sS'r'
I5
sg13
I00
sg14
Nsg15
I8
sba(iGraph
Node
p4700
(dp4701
g8
(lp4702
sg10
Nsg11
g12
sS'r'
I5
sg13
I00
sg14
Nsg15
I9
sba(iGraph
Node
p4703
(dp4704
g8
(lp4705
sg10
Nsg11
g12
sS'r'
I5
sg13
I00
sg14
Nsg15
I10
sba(iGraph
Node
p4706
(dp4707
g8
(lp4708
sg10
Nsg11
g12
sS'r'
I5
sg13
I00
sg14
Nsg15
I11
sba(iGraph
Node
p4709
(dp4710
g8
(lp4711
sg10
Nsg11
g12
sS'r'
I5
sg13
I00
sg14
Nsg15
I12
sba(iGraph
Node
p4712
(dp4713
g8
(lp4714
sg10
Nsg11
g12
sS'r'
I5
sg13
I00
sg14
Nsg15
I13
sba(iGraph
Node
p4715
(dp4716
g8
(lp4717
sg10
Nsg11
g12
sS'r'
I5
sg13
I00
sg14
Nsg15
I14
sbasg58
I0
sg59
I0
sg60
Nsg61
I0
sg62
I15
sg63
I5
sg64
I0
sg65
(lp4718
sg67
I0
sg68
(lp4719
sba(iGraph
Graph
p4720
(dp4721
g4
(lp4722
(iGraph
Node
p4723
(dp4724
g8
(lp4725
sg10
Nsg11
g12
sS'r'
I5
sg13
I00
sg14
Nsg15
I0
sba(iGraph
Node
p4726
(dp4727
g8
(lp4728
sg10
Nsg11
g12
sS'r'
I5
sg13
I00
sg14
Nsg15
I1
sba(iGraph
Node
p4729
(dp4730
g8
(lp4731
sg10
Nsg11
g12
sS'r'
I5
sg13
I00
sg14
Nsg15
I2
sba(iGraph
Node
p4732
(dp4733
g8
(lp4734
sg10
Nsg11
g12
sS'r'
I5
sg13
I00
sg14
Nsg15
I3
sba(iGraph
Node
p4735
(dp4736
g8
(lp4737
sg10
Nsg11
g12
sS'r'
I5
sg13
I00
sg14
Nsg15
I4
sba(iGraph
Node
p4738
(dp4739
g8
(lp4740
sg10
Nsg11
g12
sS'r'
I5
sg13
I00
sg14
Nsg15
I5
sba(iGraph
Node
p4741
(dp4742
g8
(lp4743
sg10
Nsg11
g12
sS'r'
I5
sg13
I00
sg14
Nsg15
I6
sba(iGraph
Node
p4744
(dp4745
g8
(lp4746
sg10
Nsg11
g12
sS'r'
I5
sg13
I00
sg14
Nsg15
I7
sba(iGraph
Node
p4747
(dp4748
g8
(lp4749
sg10
Nsg11
g12
sS'r'
I5
sg13
I00
sg14
Nsg15
I8
sba(iGraph
Node
p4750
(dp4751
g8
(lp4752
sg10
Nsg11
g12
sS'r'
I5
sg13
I00
sg14
Nsg15
I9
sba(iGraph
Node
p4753
(dp4754
g8
(lp4755
sg10
Nsg11
g12
sS'r'
I5
sg13
I00
sg14
Nsg15
I10
sba(iGraph
Node
p4756
(dp4757
g8
(lp4758
sg10
Nsg11
g12
sS'r'
I5
sg13
I00
sg14
Nsg15
I11
sba(iGraph
Node
p4759
(dp4760
g8
(lp4761
sg10
Nsg11
g12
sS'r'
I5
sg13
I00
sg14
Nsg15
I12
sba(iGraph
Node
p4762
(dp4763
g8
(lp4764
sg10
Nsg11
g12
sS'r'
I5
sg13
I00
sg14
Nsg15
I13
sba(iGraph
Node
p4765
(dp4766
g8
(lp4767
sg10
Nsg11
g12
sS'r'
I5
sg13
I00
sg14
Nsg15
I14
sbasg58
I0
sg59
I0
sg60
Nsg61
I0
sg62
I15
sg63
I5
sg64
I0
sg65
(lp4768
sg67
I0
sg68
(lp4769
sba(iGraph
Graph
p4770
(dp4771
g4
(lp4772
(iGraph
Node
p4773
(dp4774
g8
(lp4775
sg10
Nsg11
g12
sS'r'
I5
sg13
I00
sg14
Nsg15
I0
sba(iGraph
Node
p4776
(dp4777
g8
(lp4778
sg10
Nsg11
g12
sS'r'
I5
sg13
I00
sg14
Nsg15
I1
sba(iGraph
Node
p4779
(dp4780
g8
(lp4781
sg10
Nsg11
g12
sS'r'
I5
sg13
I00
sg14
Nsg15
I2
sba(iGraph
Node
p4782
(dp4783
g8
(lp4784
sg10
Nsg11
g12
sS'r'
I5
sg13
I00
sg14
Nsg15
I3
sba(iGraph
Node
p4785
(dp4786
g8
(lp4787
sg10
Nsg11
g12
sS'r'
I5
sg13
I00
sg14
Nsg15
I4
sba(iGraph
Node
p4788
(dp4789
g8
(lp4790
sg10
Nsg11
g12
sS'r'
I5
sg13
I00
sg14
Nsg15
I5
sba(iGraph
Node
p4791
(dp4792
g8
(lp4793
sg10
Nsg11
g12
sS'r'
I5
sg13
I00
sg14
Nsg15
I6
sba(iGraph
Node
p4794
(dp4795
g8
(lp4796
sg10
Nsg11
g12
sS'r'
I5
sg13
I00
sg14
Nsg15
I7
sba(iGraph
Node
p4797
(dp4798
g8
(lp4799
sg10
Nsg11
g12
sS'r'
I5
sg13
I00
sg14
Nsg15
I8
sba(iGraph
Node
p4800
(dp4801
g8
(lp4802
sg10
Nsg11
g12
sS'r'
I5
sg13
I00
sg14
Nsg15
I9
sba(iGraph
Node
p4803
(dp4804
g8
(lp4805
sg10
Nsg11
g12
sS'r'
I5
sg13
I00
sg14
Nsg15
I10
sba(iGraph
Node
p4806
(dp4807
g8
(lp4808
sg10
Nsg11
g12
sS'r'
I5
sg13
I00
sg14
Nsg15
I11
sba(iGraph
Node
p4809
(dp4810
g8
(lp4811
sg10
Nsg11
g12
sS'r'
I5
sg13
I00
sg14
Nsg15
I12
sba(iGraph
Node
p4812
(dp4813
g8
(lp4814
sg10
Nsg11
g12
sS'r'
I5
sg13
I00
sg14
Nsg15
I13
sba(iGraph
Node
p4815
(dp4816
g8
(lp4817
sg10
Nsg11
g12
sS'r'
I5
sg13
I00
sg14
Nsg15
I14
sbasg58
I0
sg59
I0
sg60
Nsg61
I0
sg62
I15
sg63
I5
sg64
I0
sg65
(lp4818
sg67
I0
sg68
(lp4819
sba(iGraph
Graph
p4820
(dp4821
g4
(lp4822
(iGraph
Node
p4823
(dp4824
g8
(lp4825
sg10
Nsg11
g12
sS'r'
I5
sg13
I00
sg14
Nsg15
I0
sba(iGraph
Node
p4826
(dp4827
g8
(lp4828
sg10
Nsg11
g12
sS'r'
I5
sg13
I00
sg14
Nsg15
I1
sba(iGraph
Node
p4829
(dp4830
g8
(lp4831
sg10
Nsg11
g12
sS'r'
I5
sg13
I00
sg14
Nsg15
I2
sba(iGraph
Node
p4832
(dp4833
g8
(lp4834
sg10
Nsg11
g12
sS'r'
I5
sg13
I00
sg14
Nsg15
I3
sba(iGraph
Node
p4835
(dp4836
g8
(lp4837
sg10
Nsg11
g12
sS'r'
I5
sg13
I00
sg14
Nsg15
I4
sba(iGraph
Node
p4838
(dp4839
g8
(lp4840
sg10
Nsg11
g12
sS'r'
I5
sg13
I00
sg14
Nsg15
I5
sba(iGraph
Node
p4841
(dp4842
g8
(lp4843
sg10
Nsg11
g12
sS'r'
I5
sg13
I00
sg14
Nsg15
I6
sba(iGraph
Node
p4844
(dp4845
g8
(lp4846
sg10
Nsg11
g12
sS'r'
I5
sg13
I00
sg14
Nsg15
I7
sba(iGraph
Node
p4847
(dp4848
g8
(lp4849
sg10
Nsg11
g12
sS'r'
I5
sg13
I00
sg14
Nsg15
I8
sba(iGraph
Node
p4850
(dp4851
g8
(lp4852
sg10
Nsg11
g12
sS'r'
I5
sg13
I00
sg14
Nsg15
I9
sba(iGraph
Node
p4853
(dp4854
g8
(lp4855
sg10
Nsg11
g12
sS'r'
I5
sg13
I00
sg14
Nsg15
I10
sba(iGraph
Node
p4856
(dp4857
g8
(lp4858
sg10
Nsg11
g12
sS'r'
I5
sg13
I00
sg14
Nsg15
I11
sba(iGraph
Node
p4859
(dp4860
g8
(lp4861
sg10
Nsg11
g12
sS'r'
I5
sg13
I00
sg14
Nsg15
I12
sba(iGraph
Node
p4862
(dp4863
g8
(lp4864
sg10
Nsg11
g12
sS'r'
I5
sg13
I00
sg14
Nsg15
I13
sba(iGraph
Node
p4865
(dp4866
g8
(lp4867
sg10
Nsg11
g12
sS'r'
I5
sg13
I00
sg14
Nsg15
I14
sbasg58
I0
sg59
I0
sg60
Nsg61
I0
sg62
I15
sg63
I5
sg64
I0
sg65
(lp4868
sg67
I0
sg68
(lp4869
sba(iGraph
Graph
p4870
(dp4871
g4
(lp4872
(iGraph
Node
p4873
(dp4874
g8
(lp4875
sg10
Nsg11
g12
sS'r'
I5
sg13
I00
sg14
Nsg15
I0
sba(iGraph
Node
p4876
(dp4877
g8
(lp4878
sg10
Nsg11
g12
sS'r'
I5
sg13
I00
sg14
Nsg15
I1
sba(iGraph
Node
p4879
(dp4880
g8
(lp4881
sg10
Nsg11
g12
sS'r'
I5
sg13
I00
sg14
Nsg15
I2
sba(iGraph
Node
p4882
(dp4883
g8
(lp4884
sg10
Nsg11
g12
sS'r'
I5
sg13
I00
sg14
Nsg15
I3
sba(iGraph
Node
p4885
(dp4886
g8
(lp4887
sg10
Nsg11
g12
sS'r'
I5
sg13
I00
sg14
Nsg15
I4
sba(iGraph
Node
p4888
(dp4889
g8
(lp4890
sg10
Nsg11
g12
sS'r'
I5
sg13
I00
sg14
Nsg15
I5
sba(iGraph
Node
p4891
(dp4892
g8
(lp4893
sg10
Nsg11
g12
sS'r'
I5
sg13
I00
sg14
Nsg15
I6
sba(iGraph
Node
p4894
(dp4895
g8
(lp4896
sg10
Nsg11
g12
sS'r'
I5
sg13
I00
sg14
Nsg15
I7
sba(iGraph
Node
p4897
(dp4898
g8
(lp4899
sg10
Nsg11
g12
sS'r'
I5
sg13
I00
sg14
Nsg15
I8
sba(iGraph
Node
p4900
(dp4901
g8
(lp4902
sg10
Nsg11
g12
sS'r'
I5
sg13
I00
sg14
Nsg15
I9
sba(iGraph
Node
p4903
(dp4904
g8
(lp4905
sg10
Nsg11
g12
sS'r'
I5
sg13
I00
sg14
Nsg15
I10
sba(iGraph
Node
p4906
(dp4907
g8
(lp4908
sg10
Nsg11
g12
sS'r'
I5
sg13
I00
sg14
Nsg15
I11
sba(iGraph
Node
p4909
(dp4910
g8
(lp4911
sg10
Nsg11
g12
sS'r'
I5
sg13
I00
sg14
Nsg15
I12
sba(iGraph
Node
p4912
(dp4913
g8
(lp4914
sg10
Nsg11
g12
sS'r'
I5
sg13
I00
sg14
Nsg15
I13
sba(iGraph
Node
p4915
(dp4916
g8
(lp4917
sg10
Nsg11
g12
sS'r'
I5
sg13
I00
sg14
Nsg15
I14
sbasg58
I0
sg59
I0
sg60
Nsg61
I0
sg62
I15
sg63
I5
sg64
I0
sg65
(lp4918
sg67
I0
sg68
(lp4919
sba(iGraph
Graph
p4920
(dp4921
g4
(lp4922
(iGraph
Node
p4923
(dp4924
g8
(lp4925
sg10
Nsg11
g12
sS'r'
I5
sg13
I00
sg14
Nsg15
I0
sba(iGraph
Node
p4926
(dp4927
g8
(lp4928
sg10
Nsg11
g12
sS'r'
I5
sg13
I00
sg14
Nsg15
I1
sba(iGraph
Node
p4929
(dp4930
g8
(lp4931
sg10
Nsg11
g12
sS'r'
I5
sg13
I00
sg14
Nsg15
I2
sba(iGraph
Node
p4932
(dp4933
g8
(lp4934
sg10
Nsg11
g12
sS'r'
I5
sg13
I00
sg14
Nsg15
I3
sba(iGraph
Node
p4935
(dp4936
g8
(lp4937
sg10
Nsg11
g12
sS'r'
I5
sg13
I00
sg14
Nsg15
I4
sba(iGraph
Node
p4938
(dp4939
g8
(lp4940
sg10
Nsg11
g12
sS'r'
I5
sg13
I00
sg14
Nsg15
I5
sba(iGraph
Node
p4941
(dp4942
g8
(lp4943
sg10
Nsg11
g12
sS'r'
I5
sg13
I00
sg14
Nsg15
I6
sba(iGraph
Node
p4944
(dp4945
g8
(lp4946
sg10
Nsg11
g12
sS'r'
I5
sg13
I00
sg14
Nsg15
I7
sba(iGraph
Node
p4947
(dp4948
g8
(lp4949
sg10
Nsg11
g12
sS'r'
I5
sg13
I00
sg14
Nsg15
I8
sba(iGraph
Node
p4950
(dp4951
g8
(lp4952
sg10
Nsg11
g12
sS'r'
I5
sg13
I00
sg14
Nsg15
I9
sba(iGraph
Node
p4953
(dp4954
g8
(lp4955
sg10
Nsg11
g12
sS'r'
I5
sg13
I00
sg14
Nsg15
I10
sba(iGraph
Node
p4956
(dp4957
g8
(lp4958
sg10
Nsg11
g12
sS'r'
I5
sg13
I00
sg14
Nsg15
I11
sba(iGraph
Node
p4959
(dp4960
g8
(lp4961
sg10
Nsg11
g12
sS'r'
I5
sg13
I00
sg14
Nsg15
I12
sba(iGraph
Node
p4962
(dp4963
g8
(lp4964
sg10
Nsg11
g12
sS'r'
I5
sg13
I00
sg14
Nsg15
I13
sba(iGraph
Node
p4965
(dp4966
g8
(lp4967
sg10
Nsg11
g12
sS'r'
I5
sg13
I00
sg14
Nsg15
I14
sbasg58
I0
sg59
I0
sg60
Nsg61
I0
sg62
I15
sg63
I5
sg64
I0
sg65
(lp4968
sg67
I0
sg68
(lp4969
sba(iGraph
Graph
p4970
(dp4971
g4
(lp4972
(iGraph
Node
p4973
(dp4974
g8
(lp4975
sg10
Nsg11
g12
sS'r'
I5
sg13
I00
sg14
Nsg15
I0
sba(iGraph
Node
p4976
(dp4977
g8
(lp4978
sg10
Nsg11
g12
sS'r'
I5
sg13
I00
sg14
Nsg15
I1
sba(iGraph
Node
p4979
(dp4980
g8
(lp4981
sg10
Nsg11
g12
sS'r'
I5
sg13
I00
sg14
Nsg15
I2
sba(iGraph
Node
p4982
(dp4983
g8
(lp4984
sg10
Nsg11
g12
sS'r'
I5
sg13
I00
sg14
Nsg15
I3
sba(iGraph
Node
p4985
(dp4986
g8
(lp4987
sg10
Nsg11
g12
sS'r'
I5
sg13
I00
sg14
Nsg15
I4
sba(iGraph
Node
p4988
(dp4989
g8
(lp4990
sg10
Nsg11
g12
sS'r'
I5
sg13
I00
sg14
Nsg15
I5
sba(iGraph
Node
p4991
(dp4992
g8
(lp4993
sg10
Nsg11
g12
sS'r'
I5
sg13
I00
sg14
Nsg15
I6
sba(iGraph
Node
p4994
(dp4995
g8
(lp4996
sg10
Nsg11
g12
sS'r'
I5
sg13
I00
sg14
Nsg15
I7
sba(iGraph
Node
p4997
(dp4998
g8
(lp4999
sg10
Nsg11
g12
sS'r'
I5
sg13
I00
sg14
Nsg15
I8
sba(iGraph
Node
p5000
(dp5001
g8
(lp5002
sg10
Nsg11
g12
sS'r'
I5
sg13
I00
sg14
Nsg15
I9
sba(iGraph
Node
p5003
(dp5004
g8
(lp5005
sg10
Nsg11
g12
sS'r'
I5
sg13
I00
sg14
Nsg15
I10
sba(iGraph
Node
p5006
(dp5007
g8
(lp5008
sg10
Nsg11
g12
sS'r'
I5
sg13
I00
sg14
Nsg15
I11
sba(iGraph
Node
p5009
(dp5010
g8
(lp5011
sg10
Nsg11
g12
sS'r'
I5
sg13
I00
sg14
Nsg15
I12
sba(iGraph
Node
p5012
(dp5013
g8
(lp5014
sg10
Nsg11
g12
sS'r'
I5
sg13
I00
sg14
Nsg15
I13
sba(iGraph
Node
p5015
(dp5016
g8
(lp5017
sg10
Nsg11
g12
sS'r'
I5
sg13
I00
sg14
Nsg15
I14
sbasg58
I0
sg59
I0
sg60
Nsg61
I0
sg62
I15
sg63
I5
sg64
I0
sg65
(lp5018
sg67
I0
sg68
(lp5019
sba.